
;CodeVisionAVR C Compiler V2.05.3 Standard
;(C) Copyright 1998-2011 Pavel Haiduc, HP InfoTech s.r.l.
;http://www.hpinfotech.com

;Chip type                : ATmega8L
;Program type             : Application
;Clock frequency          : 1.000000 MHz
;Memory model             : Small
;Optimize for             : Size
;(s)printf features       : float, width, precision
;(s)scanf features        : int, width
;External RAM size        : 0
;Data Stack size          : 300 byte(s)
;Heap size                : 0 byte(s)
;Promote 'char' to 'int'  : Yes
;'char' is unsigned       : Yes
;8 bit enums              : Yes
;Global 'const' stored in FLASH     : No
;Enhanced function parameter passing: Yes
;Enhanced core instructions         : On
;Smart register allocation          : On
;Automatic register allocation      : On

	#pragma AVRPART ADMIN PART_NAME ATmega8L
	#pragma AVRPART MEMORY PROG_FLASH 8192
	#pragma AVRPART MEMORY EEPROM 512
	#pragma AVRPART MEMORY INT_SRAM SIZE 1119
	#pragma AVRPART MEMORY INT_SRAM START_ADDR 0x60

	.LISTMAC
	.EQU UDRE=0x5
	.EQU RXC=0x7
	.EQU USR=0xB
	.EQU UDR=0xC
	.EQU SPSR=0xE
	.EQU SPDR=0xF
	.EQU EERE=0x0
	.EQU EEWE=0x1
	.EQU EEMWE=0x2
	.EQU EECR=0x1C
	.EQU EEDR=0x1D
	.EQU EEARL=0x1E
	.EQU EEARH=0x1F
	.EQU WDTCR=0x21
	.EQU MCUCR=0x35
	.EQU GICR=0x3B
	.EQU SPL=0x3D
	.EQU SPH=0x3E
	.EQU SREG=0x3F

	.DEF R0X0=R0
	.DEF R0X1=R1
	.DEF R0X2=R2
	.DEF R0X3=R3
	.DEF R0X4=R4
	.DEF R0X5=R5
	.DEF R0X6=R6
	.DEF R0X7=R7
	.DEF R0X8=R8
	.DEF R0X9=R9
	.DEF R0XA=R10
	.DEF R0XB=R11
	.DEF R0XC=R12
	.DEF R0XD=R13
	.DEF R0XE=R14
	.DEF R0XF=R15
	.DEF R0X10=R16
	.DEF R0X11=R17
	.DEF R0X12=R18
	.DEF R0X13=R19
	.DEF R0X14=R20
	.DEF R0X15=R21
	.DEF R0X16=R22
	.DEF R0X17=R23
	.DEF R0X18=R24
	.DEF R0X19=R25
	.DEF R0X1A=R26
	.DEF R0X1B=R27
	.DEF R0X1C=R28
	.DEF R0X1D=R29
	.DEF R0X1E=R30
	.DEF R0X1F=R31

	.EQU __SRAM_START=0x0060
	.EQU __SRAM_END=0x045F
	.EQU __DSTACK_SIZE=0x012C
	.EQU __HEAP_SIZE=0x0000
	.EQU __CLEAR_SRAM_SIZE=__SRAM_END-__SRAM_START+1

	.MACRO __CPD1N
	CPI  R30,LOW(@0)
	LDI  R26,HIGH(@0)
	CPC  R31,R26
	LDI  R26,BYTE3(@0)
	CPC  R22,R26
	LDI  R26,BYTE4(@0)
	CPC  R23,R26
	.ENDM

	.MACRO __CPD2N
	CPI  R26,LOW(@0)
	LDI  R30,HIGH(@0)
	CPC  R27,R30
	LDI  R30,BYTE3(@0)
	CPC  R24,R30
	LDI  R30,BYTE4(@0)
	CPC  R25,R30
	.ENDM

	.MACRO __CPWRR
	CP   R@0,R@2
	CPC  R@1,R@3
	.ENDM

	.MACRO __CPWRN
	CPI  R@0,LOW(@2)
	LDI  R30,HIGH(@2)
	CPC  R@1,R30
	.ENDM

	.MACRO __ADDB1MN
	SUBI R30,LOW(-@0-(@1))
	.ENDM

	.MACRO __ADDB2MN
	SUBI R26,LOW(-@0-(@1))
	.ENDM

	.MACRO __ADDW1MN
	SUBI R30,LOW(-@0-(@1))
	SBCI R31,HIGH(-@0-(@1))
	.ENDM

	.MACRO __ADDW2MN
	SUBI R26,LOW(-@0-(@1))
	SBCI R27,HIGH(-@0-(@1))
	.ENDM

	.MACRO __ADDW1FN
	SUBI R30,LOW(-2*@0-(@1))
	SBCI R31,HIGH(-2*@0-(@1))
	.ENDM

	.MACRO __ADDD1FN
	SUBI R30,LOW(-2*@0-(@1))
	SBCI R31,HIGH(-2*@0-(@1))
	SBCI R22,BYTE3(-2*@0-(@1))
	.ENDM

	.MACRO __ADDD1N
	SUBI R30,LOW(-@0)
	SBCI R31,HIGH(-@0)
	SBCI R22,BYTE3(-@0)
	SBCI R23,BYTE4(-@0)
	.ENDM

	.MACRO __ADDD2N
	SUBI R26,LOW(-@0)
	SBCI R27,HIGH(-@0)
	SBCI R24,BYTE3(-@0)
	SBCI R25,BYTE4(-@0)
	.ENDM

	.MACRO __SUBD1N
	SUBI R30,LOW(@0)
	SBCI R31,HIGH(@0)
	SBCI R22,BYTE3(@0)
	SBCI R23,BYTE4(@0)
	.ENDM

	.MACRO __SUBD2N
	SUBI R26,LOW(@0)
	SBCI R27,HIGH(@0)
	SBCI R24,BYTE3(@0)
	SBCI R25,BYTE4(@0)
	.ENDM

	.MACRO __ANDBMNN
	LDS  R30,@0+(@1)
	ANDI R30,LOW(@2)
	STS  @0+(@1),R30
	.ENDM

	.MACRO __ANDWMNN
	LDS  R30,@0+(@1)
	ANDI R30,LOW(@2)
	STS  @0+(@1),R30
	LDS  R30,@0+(@1)+1
	ANDI R30,HIGH(@2)
	STS  @0+(@1)+1,R30
	.ENDM

	.MACRO __ANDD1N
	ANDI R30,LOW(@0)
	ANDI R31,HIGH(@0)
	ANDI R22,BYTE3(@0)
	ANDI R23,BYTE4(@0)
	.ENDM

	.MACRO __ANDD2N
	ANDI R26,LOW(@0)
	ANDI R27,HIGH(@0)
	ANDI R24,BYTE3(@0)
	ANDI R25,BYTE4(@0)
	.ENDM

	.MACRO __ORBMNN
	LDS  R30,@0+(@1)
	ORI  R30,LOW(@2)
	STS  @0+(@1),R30
	.ENDM

	.MACRO __ORWMNN
	LDS  R30,@0+(@1)
	ORI  R30,LOW(@2)
	STS  @0+(@1),R30
	LDS  R30,@0+(@1)+1
	ORI  R30,HIGH(@2)
	STS  @0+(@1)+1,R30
	.ENDM

	.MACRO __ORD1N
	ORI  R30,LOW(@0)
	ORI  R31,HIGH(@0)
	ORI  R22,BYTE3(@0)
	ORI  R23,BYTE4(@0)
	.ENDM

	.MACRO __ORD2N
	ORI  R26,LOW(@0)
	ORI  R27,HIGH(@0)
	ORI  R24,BYTE3(@0)
	ORI  R25,BYTE4(@0)
	.ENDM

	.MACRO __DELAY_USB
	LDI  R24,LOW(@0)
__DELAY_USB_LOOP:
	DEC  R24
	BRNE __DELAY_USB_LOOP
	.ENDM

	.MACRO __DELAY_USW
	LDI  R24,LOW(@0)
	LDI  R25,HIGH(@0)
__DELAY_USW_LOOP:
	SBIW R24,1
	BRNE __DELAY_USW_LOOP
	.ENDM

	.MACRO __GETD1S
	LDD  R30,Y+@0
	LDD  R31,Y+@0+1
	LDD  R22,Y+@0+2
	LDD  R23,Y+@0+3
	.ENDM

	.MACRO __GETD2S
	LDD  R26,Y+@0
	LDD  R27,Y+@0+1
	LDD  R24,Y+@0+2
	LDD  R25,Y+@0+3
	.ENDM

	.MACRO __PUTD1S
	STD  Y+@0,R30
	STD  Y+@0+1,R31
	STD  Y+@0+2,R22
	STD  Y+@0+3,R23
	.ENDM

	.MACRO __PUTD2S
	STD  Y+@0,R26
	STD  Y+@0+1,R27
	STD  Y+@0+2,R24
	STD  Y+@0+3,R25
	.ENDM

	.MACRO __PUTDZ2
	STD  Z+@0,R26
	STD  Z+@0+1,R27
	STD  Z+@0+2,R24
	STD  Z+@0+3,R25
	.ENDM

	.MACRO __CLRD1S
	STD  Y+@0,R30
	STD  Y+@0+1,R30
	STD  Y+@0+2,R30
	STD  Y+@0+3,R30
	.ENDM

	.MACRO __POINTB1MN
	LDI  R30,LOW(@0+(@1))
	.ENDM

	.MACRO __POINTW1MN
	LDI  R30,LOW(@0+(@1))
	LDI  R31,HIGH(@0+(@1))
	.ENDM

	.MACRO __POINTD1M
	LDI  R30,LOW(@0)
	LDI  R31,HIGH(@0)
	LDI  R22,BYTE3(@0)
	LDI  R23,BYTE4(@0)
	.ENDM

	.MACRO __POINTW1FN
	LDI  R30,LOW(2*@0+(@1))
	LDI  R31,HIGH(2*@0+(@1))
	.ENDM

	.MACRO __POINTD1FN
	LDI  R30,LOW(2*@0+(@1))
	LDI  R31,HIGH(2*@0+(@1))
	LDI  R22,BYTE3(2*@0+(@1))
	LDI  R23,BYTE4(2*@0+(@1))
	.ENDM

	.MACRO __POINTB2MN
	LDI  R26,LOW(@0+(@1))
	.ENDM

	.MACRO __POINTW2MN
	LDI  R26,LOW(@0+(@1))
	LDI  R27,HIGH(@0+(@1))
	.ENDM

	.MACRO __POINTW2FN
	LDI  R26,LOW(2*@0+(@1))
	LDI  R27,HIGH(2*@0+(@1))
	.ENDM

	.MACRO __POINTD2FN
	LDI  R26,LOW(2*@0+(@1))
	LDI  R27,HIGH(2*@0+(@1))
	LDI  R24,BYTE3(2*@0+(@1))
	LDI  R25,BYTE4(2*@0+(@1))
	.ENDM

	.MACRO __POINTBRM
	LDI  R@0,LOW(@1)
	.ENDM

	.MACRO __POINTWRM
	LDI  R@0,LOW(@2)
	LDI  R@1,HIGH(@2)
	.ENDM

	.MACRO __POINTBRMN
	LDI  R@0,LOW(@1+(@2))
	.ENDM

	.MACRO __POINTWRMN
	LDI  R@0,LOW(@2+(@3))
	LDI  R@1,HIGH(@2+(@3))
	.ENDM

	.MACRO __POINTWRFN
	LDI  R@0,LOW(@2*2+(@3))
	LDI  R@1,HIGH(@2*2+(@3))
	.ENDM

	.MACRO __GETD1N
	LDI  R30,LOW(@0)
	LDI  R31,HIGH(@0)
	LDI  R22,BYTE3(@0)
	LDI  R23,BYTE4(@0)
	.ENDM

	.MACRO __GETD2N
	LDI  R26,LOW(@0)
	LDI  R27,HIGH(@0)
	LDI  R24,BYTE3(@0)
	LDI  R25,BYTE4(@0)
	.ENDM

	.MACRO __GETB1MN
	LDS  R30,@0+(@1)
	.ENDM

	.MACRO __GETB1HMN
	LDS  R31,@0+(@1)
	.ENDM

	.MACRO __GETW1MN
	LDS  R30,@0+(@1)
	LDS  R31,@0+(@1)+1
	.ENDM

	.MACRO __GETD1MN
	LDS  R30,@0+(@1)
	LDS  R31,@0+(@1)+1
	LDS  R22,@0+(@1)+2
	LDS  R23,@0+(@1)+3
	.ENDM

	.MACRO __GETBRMN
	LDS  R@0,@1+(@2)
	.ENDM

	.MACRO __GETWRMN
	LDS  R@0,@2+(@3)
	LDS  R@1,@2+(@3)+1
	.ENDM

	.MACRO __GETWRZ
	LDD  R@0,Z+@2
	LDD  R@1,Z+@2+1
	.ENDM

	.MACRO __GETD2Z
	LDD  R26,Z+@0
	LDD  R27,Z+@0+1
	LDD  R24,Z+@0+2
	LDD  R25,Z+@0+3
	.ENDM

	.MACRO __GETB2MN
	LDS  R26,@0+(@1)
	.ENDM

	.MACRO __GETW2MN
	LDS  R26,@0+(@1)
	LDS  R27,@0+(@1)+1
	.ENDM

	.MACRO __GETD2MN
	LDS  R26,@0+(@1)
	LDS  R27,@0+(@1)+1
	LDS  R24,@0+(@1)+2
	LDS  R25,@0+(@1)+3
	.ENDM

	.MACRO __PUTB1MN
	STS  @0+(@1),R30
	.ENDM

	.MACRO __PUTW1MN
	STS  @0+(@1),R30
	STS  @0+(@1)+1,R31
	.ENDM

	.MACRO __PUTD1MN
	STS  @0+(@1),R30
	STS  @0+(@1)+1,R31
	STS  @0+(@1)+2,R22
	STS  @0+(@1)+3,R23
	.ENDM

	.MACRO __PUTB1EN
	LDI  R26,LOW(@0+(@1))
	LDI  R27,HIGH(@0+(@1))
	RCALL __EEPROMWRB
	.ENDM

	.MACRO __PUTW1EN
	LDI  R26,LOW(@0+(@1))
	LDI  R27,HIGH(@0+(@1))
	RCALL __EEPROMWRW
	.ENDM

	.MACRO __PUTD1EN
	LDI  R26,LOW(@0+(@1))
	LDI  R27,HIGH(@0+(@1))
	RCALL __EEPROMWRD
	.ENDM

	.MACRO __PUTBR0MN
	STS  @0+(@1),R0
	.ENDM

	.MACRO __PUTBMRN
	STS  @0+(@1),R@2
	.ENDM

	.MACRO __PUTWMRN
	STS  @0+(@1),R@2
	STS  @0+(@1)+1,R@3
	.ENDM

	.MACRO __PUTBZR
	STD  Z+@1,R@0
	.ENDM

	.MACRO __PUTWZR
	STD  Z+@2,R@0
	STD  Z+@2+1,R@1
	.ENDM

	.MACRO __GETW1R
	MOV  R30,R@0
	MOV  R31,R@1
	.ENDM

	.MACRO __GETW2R
	MOV  R26,R@0
	MOV  R27,R@1
	.ENDM

	.MACRO __GETWRN
	LDI  R@0,LOW(@2)
	LDI  R@1,HIGH(@2)
	.ENDM

	.MACRO __PUTW1R
	MOV  R@0,R30
	MOV  R@1,R31
	.ENDM

	.MACRO __PUTW2R
	MOV  R@0,R26
	MOV  R@1,R27
	.ENDM

	.MACRO __ADDWRN
	SUBI R@0,LOW(-@2)
	SBCI R@1,HIGH(-@2)
	.ENDM

	.MACRO __ADDWRR
	ADD  R@0,R@2
	ADC  R@1,R@3
	.ENDM

	.MACRO __SUBWRN
	SUBI R@0,LOW(@2)
	SBCI R@1,HIGH(@2)
	.ENDM

	.MACRO __SUBWRR
	SUB  R@0,R@2
	SBC  R@1,R@3
	.ENDM

	.MACRO __ANDWRN
	ANDI R@0,LOW(@2)
	ANDI R@1,HIGH(@2)
	.ENDM

	.MACRO __ANDWRR
	AND  R@0,R@2
	AND  R@1,R@3
	.ENDM

	.MACRO __ORWRN
	ORI  R@0,LOW(@2)
	ORI  R@1,HIGH(@2)
	.ENDM

	.MACRO __ORWRR
	OR   R@0,R@2
	OR   R@1,R@3
	.ENDM

	.MACRO __EORWRR
	EOR  R@0,R@2
	EOR  R@1,R@3
	.ENDM

	.MACRO __GETWRS
	LDD  R@0,Y+@2
	LDD  R@1,Y+@2+1
	.ENDM

	.MACRO __PUTBSR
	STD  Y+@1,R@0
	.ENDM

	.MACRO __PUTWSR
	STD  Y+@2,R@0
	STD  Y+@2+1,R@1
	.ENDM

	.MACRO __MOVEWRR
	MOV  R@0,R@2
	MOV  R@1,R@3
	.ENDM

	.MACRO __INWR
	IN   R@0,@2
	IN   R@1,@2+1
	.ENDM

	.MACRO __OUTWR
	OUT  @2+1,R@1
	OUT  @2,R@0
	.ENDM

	.MACRO __CALL1MN
	LDS  R30,@0+(@1)
	LDS  R31,@0+(@1)+1
	ICALL
	.ENDM

	.MACRO __CALL1FN
	LDI  R30,LOW(2*@0+(@1))
	LDI  R31,HIGH(2*@0+(@1))
	RCALL __GETW1PF
	ICALL
	.ENDM

	.MACRO __CALL2EN
	LDI  R26,LOW(@0+(@1))
	LDI  R27,HIGH(@0+(@1))
	RCALL __EEPROMRDW
	ICALL
	.ENDM

	.MACRO __GETW1STACK
	IN   R26,SPL
	IN   R27,SPH
	ADIW R26,@0+1
	LD   R30,X+
	LD   R31,X
	.ENDM

	.MACRO __GETD1STACK
	IN   R26,SPL
	IN   R27,SPH
	ADIW R26,@0+1
	LD   R30,X+
	LD   R31,X+
	LD   R22,X
	.ENDM

	.MACRO __NBST
	BST  R@0,@1
	IN   R30,SREG
	LDI  R31,0x40
	EOR  R30,R31
	OUT  SREG,R30
	.ENDM


	.MACRO __PUTB1SN
	LDD  R26,Y+@0
	LDD  R27,Y+@0+1
	SUBI R26,LOW(-@1)
	SBCI R27,HIGH(-@1)
	ST   X,R30
	.ENDM

	.MACRO __PUTW1SN
	LDD  R26,Y+@0
	LDD  R27,Y+@0+1
	SUBI R26,LOW(-@1)
	SBCI R27,HIGH(-@1)
	ST   X+,R30
	ST   X,R31
	.ENDM

	.MACRO __PUTD1SN
	LDD  R26,Y+@0
	LDD  R27,Y+@0+1
	SUBI R26,LOW(-@1)
	SBCI R27,HIGH(-@1)
	RCALL __PUTDP1
	.ENDM

	.MACRO __PUTB1SNS
	LDD  R26,Y+@0
	LDD  R27,Y+@0+1
	ADIW R26,@1
	ST   X,R30
	.ENDM

	.MACRO __PUTW1SNS
	LDD  R26,Y+@0
	LDD  R27,Y+@0+1
	ADIW R26,@1
	ST   X+,R30
	ST   X,R31
	.ENDM

	.MACRO __PUTD1SNS
	LDD  R26,Y+@0
	LDD  R27,Y+@0+1
	ADIW R26,@1
	RCALL __PUTDP1
	.ENDM

	.MACRO __PUTB1PMN
	LDS  R26,@0
	LDS  R27,@0+1
	SUBI R26,LOW(-@1)
	SBCI R27,HIGH(-@1)
	ST   X,R30
	.ENDM

	.MACRO __PUTW1PMN
	LDS  R26,@0
	LDS  R27,@0+1
	SUBI R26,LOW(-@1)
	SBCI R27,HIGH(-@1)
	ST   X+,R30
	ST   X,R31
	.ENDM

	.MACRO __PUTD1PMN
	LDS  R26,@0
	LDS  R27,@0+1
	SUBI R26,LOW(-@1)
	SBCI R27,HIGH(-@1)
	RCALL __PUTDP1
	.ENDM

	.MACRO __PUTB1PMNS
	LDS  R26,@0
	LDS  R27,@0+1
	ADIW R26,@1
	ST   X,R30
	.ENDM

	.MACRO __PUTW1PMNS
	LDS  R26,@0
	LDS  R27,@0+1
	ADIW R26,@1
	ST   X+,R30
	ST   X,R31
	.ENDM

	.MACRO __PUTD1PMNS
	LDS  R26,@0
	LDS  R27,@0+1
	ADIW R26,@1
	RCALL __PUTDP1
	.ENDM

	.MACRO __PUTB1RN
	MOVW R26,R@0
	SUBI R26,LOW(-@1)
	SBCI R27,HIGH(-@1)
	ST   X,R30
	.ENDM

	.MACRO __PUTW1RN
	MOVW R26,R@0
	SUBI R26,LOW(-@1)
	SBCI R27,HIGH(-@1)
	ST   X+,R30
	ST   X,R31
	.ENDM

	.MACRO __PUTD1RN
	MOVW R26,R@0
	SUBI R26,LOW(-@1)
	SBCI R27,HIGH(-@1)
	RCALL __PUTDP1
	.ENDM

	.MACRO __PUTB1RNS
	MOVW R26,R@0
	ADIW R26,@1
	ST   X,R30
	.ENDM

	.MACRO __PUTW1RNS
	MOVW R26,R@0
	ADIW R26,@1
	ST   X+,R30
	ST   X,R31
	.ENDM

	.MACRO __PUTD1RNS
	MOVW R26,R@0
	ADIW R26,@1
	RCALL __PUTDP1
	.ENDM

	.MACRO __PUTB1RON
	MOV  R26,R@0
	MOV  R27,R@1
	SUBI R26,LOW(-@2)
	SBCI R27,HIGH(-@2)
	ST   X,R30
	.ENDM

	.MACRO __PUTW1RON
	MOV  R26,R@0
	MOV  R27,R@1
	SUBI R26,LOW(-@2)
	SBCI R27,HIGH(-@2)
	ST   X+,R30
	ST   X,R31
	.ENDM

	.MACRO __PUTD1RON
	MOV  R26,R@0
	MOV  R27,R@1
	SUBI R26,LOW(-@2)
	SBCI R27,HIGH(-@2)
	RCALL __PUTDP1
	.ENDM

	.MACRO __PUTB1RONS
	MOV  R26,R@0
	MOV  R27,R@1
	ADIW R26,@2
	ST   X,R30
	.ENDM

	.MACRO __PUTW1RONS
	MOV  R26,R@0
	MOV  R27,R@1
	ADIW R26,@2
	ST   X+,R30
	ST   X,R31
	.ENDM

	.MACRO __PUTD1RONS
	MOV  R26,R@0
	MOV  R27,R@1
	ADIW R26,@2
	RCALL __PUTDP1
	.ENDM


	.MACRO __GETB1SX
	MOVW R30,R28
	SUBI R30,LOW(-@0)
	SBCI R31,HIGH(-@0)
	LD   R30,Z
	.ENDM

	.MACRO __GETB1HSX
	MOVW R30,R28
	SUBI R30,LOW(-@0)
	SBCI R31,HIGH(-@0)
	LD   R31,Z
	.ENDM

	.MACRO __GETW1SX
	MOVW R30,R28
	SUBI R30,LOW(-@0)
	SBCI R31,HIGH(-@0)
	LD   R0,Z+
	LD   R31,Z
	MOV  R30,R0
	.ENDM

	.MACRO __GETD1SX
	MOVW R30,R28
	SUBI R30,LOW(-@0)
	SBCI R31,HIGH(-@0)
	LD   R0,Z+
	LD   R1,Z+
	LD   R22,Z+
	LD   R23,Z
	MOVW R30,R0
	.ENDM

	.MACRO __GETB2SX
	MOVW R26,R28
	SUBI R26,LOW(-@0)
	SBCI R27,HIGH(-@0)
	LD   R26,X
	.ENDM

	.MACRO __GETW2SX
	MOVW R26,R28
	SUBI R26,LOW(-@0)
	SBCI R27,HIGH(-@0)
	LD   R0,X+
	LD   R27,X
	MOV  R26,R0
	.ENDM

	.MACRO __GETD2SX
	MOVW R26,R28
	SUBI R26,LOW(-@0)
	SBCI R27,HIGH(-@0)
	LD   R0,X+
	LD   R1,X+
	LD   R24,X+
	LD   R25,X
	MOVW R26,R0
	.ENDM

	.MACRO __GETBRSX
	MOVW R30,R28
	SUBI R30,LOW(-@1)
	SBCI R31,HIGH(-@1)
	LD   R@0,Z
	.ENDM

	.MACRO __GETWRSX
	MOVW R30,R28
	SUBI R30,LOW(-@2)
	SBCI R31,HIGH(-@2)
	LD   R@0,Z+
	LD   R@1,Z
	.ENDM

	.MACRO __GETBRSX2
	MOVW R26,R28
	SUBI R26,LOW(-@1)
	SBCI R27,HIGH(-@1)
	LD   R@0,X
	.ENDM

	.MACRO __GETWRSX2
	MOVW R26,R28
	SUBI R26,LOW(-@2)
	SBCI R27,HIGH(-@2)
	LD   R@0,X+
	LD   R@1,X
	.ENDM

	.MACRO __LSLW8SX
	MOVW R30,R28
	SUBI R30,LOW(-@0)
	SBCI R31,HIGH(-@0)
	LD   R31,Z
	CLR  R30
	.ENDM

	.MACRO __PUTB1SX
	MOVW R26,R28
	SUBI R26,LOW(-@0)
	SBCI R27,HIGH(-@0)
	ST   X,R30
	.ENDM

	.MACRO __PUTW1SX
	MOVW R26,R28
	SUBI R26,LOW(-@0)
	SBCI R27,HIGH(-@0)
	ST   X+,R30
	ST   X,R31
	.ENDM

	.MACRO __PUTD1SX
	MOVW R26,R28
	SUBI R26,LOW(-@0)
	SBCI R27,HIGH(-@0)
	ST   X+,R30
	ST   X+,R31
	ST   X+,R22
	ST   X,R23
	.ENDM

	.MACRO __CLRW1SX
	MOVW R26,R28
	SUBI R26,LOW(-@0)
	SBCI R27,HIGH(-@0)
	ST   X+,R30
	ST   X,R30
	.ENDM

	.MACRO __CLRD1SX
	MOVW R26,R28
	SUBI R26,LOW(-@0)
	SBCI R27,HIGH(-@0)
	ST   X+,R30
	ST   X+,R30
	ST   X+,R30
	ST   X,R30
	.ENDM

	.MACRO __PUTB2SX
	MOVW R30,R28
	SUBI R30,LOW(-@0)
	SBCI R31,HIGH(-@0)
	ST   Z,R26
	.ENDM

	.MACRO __PUTW2SX
	MOVW R30,R28
	SUBI R30,LOW(-@0)
	SBCI R31,HIGH(-@0)
	ST   Z+,R26
	ST   Z,R27
	.ENDM

	.MACRO __PUTD2SX
	MOVW R30,R28
	SUBI R30,LOW(-@0)
	SBCI R31,HIGH(-@0)
	ST   Z+,R26
	ST   Z+,R27
	ST   Z+,R24
	ST   Z,R25
	.ENDM

	.MACRO __PUTBSRX
	MOVW R30,R28
	SUBI R30,LOW(-@1)
	SBCI R31,HIGH(-@1)
	ST   Z,R@0
	.ENDM

	.MACRO __PUTWSRX
	MOVW R30,R28
	SUBI R30,LOW(-@2)
	SBCI R31,HIGH(-@2)
	ST   Z+,R@0
	ST   Z,R@1
	.ENDM

	.MACRO __PUTB1SNX
	MOVW R26,R28
	SUBI R26,LOW(-@0)
	SBCI R27,HIGH(-@0)
	LD   R0,X+
	LD   R27,X
	MOV  R26,R0
	SUBI R26,LOW(-@1)
	SBCI R27,HIGH(-@1)
	ST   X,R30
	.ENDM

	.MACRO __PUTW1SNX
	MOVW R26,R28
	SUBI R26,LOW(-@0)
	SBCI R27,HIGH(-@0)
	LD   R0,X+
	LD   R27,X
	MOV  R26,R0
	SUBI R26,LOW(-@1)
	SBCI R27,HIGH(-@1)
	ST   X+,R30
	ST   X,R31
	.ENDM

	.MACRO __PUTD1SNX
	MOVW R26,R28
	SUBI R26,LOW(-@0)
	SBCI R27,HIGH(-@0)
	LD   R0,X+
	LD   R27,X
	MOV  R26,R0
	SUBI R26,LOW(-@1)
	SBCI R27,HIGH(-@1)
	ST   X+,R30
	ST   X+,R31
	ST   X+,R22
	ST   X,R23
	.ENDM

	.MACRO __MULBRR
	MULS R@0,R@1
	MOVW R30,R0
	.ENDM

	.MACRO __MULBRRU
	MUL  R@0,R@1
	MOVW R30,R0
	.ENDM

	.MACRO __MULBRR0
	MULS R@0,R@1
	.ENDM

	.MACRO __MULBRRU0
	MUL  R@0,R@1
	.ENDM

	.MACRO __MULBNWRU
	LDI  R26,@2
	MUL  R26,R@0
	MOVW R30,R0
	MUL  R26,R@1
	ADD  R31,R0
	.ENDM

;NAME DEFINITIONS FOR GLOBAL VARIABLES ALLOCATED TO REGISTERS
	.DEF _tenth=R4
	.DEF _Min=R6
	.DEF _Sec=R8
	.DEF _Min1=R10
	.DEF _Hour=R12

	.CSEG
	.ORG 0x00

;START OF CODE MARKER
__START_OF_CODE:

;INTERRUPT VECTORS
	RJMP __RESET
	RJMP _ext_int0_isr
	RJMP 0x00
	RJMP _timer2_comp_isr
	RJMP 0x00
	RJMP 0x00
	RJMP 0x00
	RJMP 0x00
	RJMP 0x00
	RJMP 0x00
	RJMP 0x00
	RJMP _usart_rx_isr
	RJMP 0x00
	RJMP _usart_tx_isr
	RJMP 0x00
	RJMP 0x00
	RJMP 0x00
	RJMP 0x00
	RJMP 0x00

;REGISTER BIT VARIABLES INITIALIZATION
__REG_BIT_VARS:
	.DW  0x0000

_0x2B:
	.DB  0x0,0x0,0x0,0x0,0x0,0x0,0x0,0x0
	.DB  0x0,0x0
_0x0:
	.DB  0x48,0x75,0x6D,0x69,0x64,0x69,0x74,0x79
	.DB  0x31,0x3D,0x25,0x37,0x2E,0x32,0x66,0x0
	.DB  0x48,0x75,0x6D,0x69,0x64,0x69,0x74,0x79
	.DB  0x32,0x3D,0x25,0x37,0x2E,0x32,0x66,0x0
	.DB  0x47,0x72,0x61,0x70,0x68,0x31,0x3D,0x25
	.DB  0x64,0x0,0x47,0x72,0x61,0x70,0x68,0x32
	.DB  0x3D,0x25,0x64,0x0
_0x2000000:
	.DB  0x2D,0x4E,0x41,0x4E,0x0
_0x2080060:
	.DB  0x1
_0x2080000:
	.DB  0x2D,0x4E,0x41,0x4E,0x0,0x49,0x4E,0x46
	.DB  0x0

__GLOBAL_INI_TBL:
	.DW  0x01
	.DW  0x02
	.DW  __REG_BIT_VARS*2

	.DW  0x0A
	.DW  0x04
	.DW  _0x2B*2

	.DW  0x01
	.DW  __seed_G104
	.DW  _0x2080060*2

_0xFFFFFFFF:
	.DW  0

__RESET:
	CLI
	CLR  R30
	OUT  EECR,R30

;INTERRUPT VECTORS ARE PLACED
;AT THE START OF FLASH
	LDI  R31,1
	OUT  GICR,R31
	OUT  GICR,R30
	OUT  MCUCR,R30

;DISABLE WATCHDOG
	LDI  R31,0x18
	OUT  WDTCR,R31
	OUT  WDTCR,R30

;CLEAR R2-R14
	LDI  R24,(14-2)+1
	LDI  R26,2
	CLR  R27
__CLEAR_REG:
	ST   X+,R30
	DEC  R24
	BRNE __CLEAR_REG

;CLEAR SRAM
	LDI  R24,LOW(__CLEAR_SRAM_SIZE)
	LDI  R25,HIGH(__CLEAR_SRAM_SIZE)
	LDI  R26,__SRAM_START
__CLEAR_SRAM:
	ST   X+,R30
	SBIW R24,1
	BRNE __CLEAR_SRAM

;GLOBAL VARIABLES INITIALIZATION
	LDI  R30,LOW(__GLOBAL_INI_TBL*2)
	LDI  R31,HIGH(__GLOBAL_INI_TBL*2)
__GLOBAL_INI_NEXT:
	LPM  R24,Z+
	LPM  R25,Z+
	SBIW R24,0
	BREQ __GLOBAL_INI_END
	LPM  R26,Z+
	LPM  R27,Z+
	LPM  R0,Z+
	LPM  R1,Z+
	MOVW R22,R30
	MOVW R30,R0
__GLOBAL_INI_LOOP:
	LPM  R0,Z+
	ST   X+,R0
	SBIW R24,1
	BRNE __GLOBAL_INI_LOOP
	MOVW R30,R22
	RJMP __GLOBAL_INI_NEXT
__GLOBAL_INI_END:

;HARDWARE STACK POINTER INITIALIZATION
	LDI  R30,LOW(__SRAM_END-__HEAP_SIZE)
	OUT  SPL,R30
	LDI  R30,HIGH(__SRAM_END-__HEAP_SIZE)
	OUT  SPH,R30

;DATA STACK POINTER INITIALIZATION
	LDI  R28,LOW(__SRAM_START+__DSTACK_SIZE)
	LDI  R29,HIGH(__SRAM_START+__DSTACK_SIZE)

	RJMP _main

	.ESEG
	.ORG 0

	.DSEG
	.ORG 0x18C

	.CSEG
;#include <mega8.h>
	#ifndef __SLEEP_DEFINED__
	#define __SLEEP_DEFINED__
	.EQU __se_bit=0x80
	.EQU __sm_mask=0x70
	.EQU __sm_powerdown=0x20
	.EQU __sm_powersave=0x30
	.EQU __sm_standby=0x60
	.EQU __sm_ext_standby=0x70
	.EQU __sm_adc_noise_red=0x10
	.SET power_ctrl_reg=mcucr
	#endif
;
;#include <delay.h>
;
;#include <stdio.h>
; float Humidity1=0,Humidity2=0,adc[3];
; eeprom float  DailyAverage1=0,DailyAverage2=0,Sample1[2],Sample2[2];
; int Graph1[7],Graph2[7];
; int tenth=0,Min=0,Sec=0,Min1=0,Hour=0,Day=0;
;// External Interrupt 0 service routine
;
;
;
;#ifndef RXB8
;#define RXB8 1
;#endif
;
;#ifndef TXB8
;#define TXB8 0
;#endif
;
;#ifndef UPE
;#define UPE 2
;#endif
;
;#ifndef DOR
;#define DOR 3
;#endif
;
;#ifndef FE
;#define FE 4
;#endif
;
;#ifndef UDRE
;#define UDRE 5
;#endif
;
;#ifndef RXC
;#define RXC 7
;#endif
;
;#define FRAMING_ERROR (1<<FE)
;#define PARITY_ERROR (1<<UPE)
;#define DATA_OVERRUN (1<<DOR)
;#define DATA_REGISTER_EMPTY (1<<UDRE)
;#define RX_COMPLETE (1<<RXC)
;
;// USART Receiver buffer
;#define RX_BUFFER_SIZE 64
;char rx_buffer[RX_BUFFER_SIZE];
;
;#if RX_BUFFER_SIZE <= 256
;unsigned char rx_wr_index,rx_rd_index,rx_counter;
;#else
;unsigned int rx_wr_index,rx_rd_index,rx_counter;
;#endif
;
;// This flag is set on USART Receiver buffer overflow
;bit rx_buffer_overflow;
;
;// USART Receiver interrupt service routine
;interrupt [USART_RXC] void usart_rx_isr(void)
; 0000 003F {

	.CSEG
_usart_rx_isr:
	RCALL SUBOPT_0x0
; 0000 0040 char status,data;
; 0000 0041 
; 0000 0042 status=UCSRA;
	RCALL __SAVELOCR2
;	status -> R17
;	data -> R16
	IN   R17,11
; 0000 0043 data=UDR;
	IN   R16,12
; 0000 0044 if ((status & (FRAMING_ERROR | PARITY_ERROR | DATA_OVERRUN))==0)
	MOV  R30,R17
	ANDI R30,LOW(0x1C)
	BRNE _0x3
; 0000 0045    {
; 0000 0046    rx_buffer[rx_wr_index++]=data;
	LDS  R30,_rx_wr_index
	SUBI R30,-LOW(1)
	STS  _rx_wr_index,R30
	RCALL SUBOPT_0x1
	SUBI R30,LOW(-_rx_buffer)
	SBCI R31,HIGH(-_rx_buffer)
	ST   Z,R16
; 0000 0047 #if RX_BUFFER_SIZE == 256
; 0000 0048    // special case for receiver buffer size=256
; 0000 0049    if (++rx_counter == 0) rx_buffer_overflow=1;
; 0000 004A #else
; 0000 004B    if (rx_wr_index == RX_BUFFER_SIZE) rx_wr_index=0;
	LDS  R26,_rx_wr_index
	CPI  R26,LOW(0x40)
	BRNE _0x4
	LDI  R30,LOW(0)
	STS  _rx_wr_index,R30
; 0000 004C    if (++rx_counter == RX_BUFFER_SIZE)
_0x4:
	LDS  R26,_rx_counter
	SUBI R26,-LOW(1)
	STS  _rx_counter,R26
	CPI  R26,LOW(0x40)
	BRNE _0x5
; 0000 004D       {
; 0000 004E       rx_counter=0;
	LDI  R30,LOW(0)
	STS  _rx_counter,R30
; 0000 004F       rx_buffer_overflow=1;
	SET
	BLD  R2,0
; 0000 0050       }
; 0000 0051 #endif
; 0000 0052    }
_0x5:
; 0000 0053 
; 0000 0054 
; 0000 0055 }
_0x3:
	RCALL __LOADLOCR2P
	RJMP _0x2A
;
;#ifndef _DEBUG_TERMINAL_IO_
;// Get a character from the USART Receiver buffer
;#define _ALTERNATE_GETCHAR_
;#pragma used+
;char getchar(void)
; 0000 005C {
; 0000 005D char data;
; 0000 005E while (rx_counter==0);
;	data -> R17
; 0000 005F data=rx_buffer[rx_rd_index++];
; 0000 0060 #if RX_BUFFER_SIZE != 256
; 0000 0061 if (rx_rd_index == RX_BUFFER_SIZE) rx_rd_index=0;
; 0000 0062 #endif
; 0000 0063 #asm("cli")
; 0000 0064 --rx_counter;
; 0000 0065 #asm("sei")
; 0000 0066 return data;
; 0000 0067 }
;#pragma used-
;#endif
;
;// USART Transmitter buffer
;#define TX_BUFFER_SIZE 100
;char tx_buffer[TX_BUFFER_SIZE];
;
;#if TX_BUFFER_SIZE <= 256
;unsigned char tx_wr_index,tx_rd_index,tx_counter;
;#else
;unsigned int tx_wr_index,tx_rd_index,tx_counter;
;#endif
;
;// USART Transmitter interrupt service routine
;interrupt [USART_TXC] void usart_tx_isr(void)
; 0000 0077 {
_usart_tx_isr:
	RCALL SUBOPT_0x0
; 0000 0078 if (tx_counter)
	RCALL SUBOPT_0x2
	CPI  R30,0
	BREQ _0xA
; 0000 0079    {
; 0000 007A    --tx_counter;
	RCALL SUBOPT_0x2
	SUBI R30,LOW(1)
	STS  _tx_counter,R30
; 0000 007B    UDR=tx_buffer[tx_rd_index++];
	LDS  R30,_tx_rd_index
	SUBI R30,-LOW(1)
	STS  _tx_rd_index,R30
	RCALL SUBOPT_0x1
	SUBI R30,LOW(-_tx_buffer)
	SBCI R31,HIGH(-_tx_buffer)
	LD   R30,Z
	OUT  0xC,R30
; 0000 007C #if TX_BUFFER_SIZE != 256
; 0000 007D    if (tx_rd_index == TX_BUFFER_SIZE) tx_rd_index=0;
	LDS  R26,_tx_rd_index
	CPI  R26,LOW(0x64)
	BRNE _0xB
	LDI  R30,LOW(0)
	STS  _tx_rd_index,R30
; 0000 007E #endif
; 0000 007F    }
_0xB:
; 0000 0080 }
_0xA:
_0x2A:
	LD   R30,Y+
	OUT  SREG,R30
	LD   R31,Y+
	LD   R30,Y+
	LD   R26,Y+
	RETI
;
;#ifndef _DEBUG_TERMINAL_IO_
;// Write a character to the USART Transmitter buffer
;#define _ALTERNATE_PUTCHAR_
;#pragma used+
;void putchar(char c)
; 0000 0087 {
_putchar:
; 0000 0088 while (tx_counter == TX_BUFFER_SIZE);
	ST   -Y,R26
;	c -> Y+0
_0xC:
	LDS  R26,_tx_counter
	CPI  R26,LOW(0x64)
	BREQ _0xC
; 0000 0089 #asm("cli")
	cli
; 0000 008A if (tx_counter || ((UCSRA & DATA_REGISTER_EMPTY)==0))
	RCALL SUBOPT_0x2
	CPI  R30,0
	BRNE _0x10
	SBIC 0xB,5
	RJMP _0xF
_0x10:
; 0000 008B    {
; 0000 008C    tx_buffer[tx_wr_index++]=c;
	LDS  R30,_tx_wr_index
	SUBI R30,-LOW(1)
	STS  _tx_wr_index,R30
	RCALL SUBOPT_0x1
	SUBI R30,LOW(-_tx_buffer)
	SBCI R31,HIGH(-_tx_buffer)
	LD   R26,Y
	STD  Z+0,R26
; 0000 008D #if TX_BUFFER_SIZE != 256
; 0000 008E    if (tx_wr_index == TX_BUFFER_SIZE) tx_wr_index=0;
	LDS  R26,_tx_wr_index
	CPI  R26,LOW(0x64)
	BRNE _0x12
	LDI  R30,LOW(0)
	STS  _tx_wr_index,R30
; 0000 008F #endif
; 0000 0090    ++tx_counter;
_0x12:
	RCALL SUBOPT_0x2
	SUBI R30,-LOW(1)
	STS  _tx_counter,R30
; 0000 0091    }
; 0000 0092 else
	RJMP _0x13
_0xF:
; 0000 0093    UDR=c;
	LD   R30,Y
	OUT  0xC,R30
; 0000 0094 #asm("sei")
_0x13:
	sei
; 0000 0095 }
	RJMP _0x20A0005
;#pragma used-
;#endif
;
;// Standard Input/Output functions
;
;
;// Timer2 output compare interrupt service routine
;
;
;#define ADC_VREF_TYPE 0x00
;
;// Read the AD conversion result
;unsigned int read_adc(unsigned char adc_input)
; 0000 00A3 {
_read_adc:
; 0000 00A4 ADMUX=adc_input | (ADC_VREF_TYPE & 0xff);
	ST   -Y,R26
;	adc_input -> Y+0
	LD   R30,Y
	OUT  0x7,R30
; 0000 00A5 // Delay needed for the stabilization of the ADC input voltage
; 0000 00A6 delay_us(10);
	__DELAY_USB 3
; 0000 00A7 // Start the AD conversion
; 0000 00A8 ADCSRA|=0x40;
	SBI  0x6,6
; 0000 00A9 // Wait for the AD conversion to complete
; 0000 00AA while ((ADCSRA & 0x10)==0);
_0x14:
	SBIS 0x6,4
	RJMP _0x14
; 0000 00AB ADCSRA|=0x10;
	SBI  0x6,4
; 0000 00AC return ADCW;
	IN   R30,0x4
	IN   R31,0x4+1
_0x20A0005:
	ADIW R28,1
	RET
; 0000 00AD }
;
;interrupt [TIM2_COMP] void timer2_comp_isr(void)
; 0000 00B0 {
_timer2_comp_isr:
	RCALL SUBOPT_0x3
; 0000 00B1   tenth++;
	MOVW R30,R4
	ADIW R30,1
	MOVW R4,R30
; 0000 00B2     if(tenth==10){
	LDI  R30,LOW(10)
	LDI  R31,HIGH(10)
	CP   R30,R4
	CPC  R31,R5
	BREQ PC+2
	RJMP _0x17
; 0000 00B3       Sec++,tenth=0;
	MOVW R30,R8
	ADIW R30,1
	MOVW R8,R30
	CLR  R4
	CLR  R5
; 0000 00B4       if(Sec==60){
	LDI  R30,LOW(60)
	LDI  R31,HIGH(60)
	CP   R30,R8
	CPC  R31,R9
	BREQ PC+2
	RJMP _0x18
; 0000 00B5         Min1++,Min++,Sec=0;
	MOVW R30,R10
	ADIW R30,1
	MOVW R10,R30
	MOVW R30,R6
	ADIW R30,1
	MOVW R6,R30
	CLR  R8
	CLR  R9
; 0000 00B6         if(Min==2){
	RCALL SUBOPT_0x4
	BRNE _0x19
; 0000 00B7          adc[0]=read_adc(0);
	RCALL SUBOPT_0x5
; 0000 00B8          adc[1]=read_adc(1);
; 0000 00B9          adc[2]=read_adc(2);
; 0000 00BA          Min=0;
	CLR  R6
	CLR  R7
; 0000 00BB          }
; 0000 00BC 
; 0000 00BD          if(Min1==60){
_0x19:
	LDI  R30,LOW(60)
	LDI  R31,HIGH(60)
	CP   R30,R10
	CPC  R31,R11
	BRNE _0x1A
; 0000 00BE           Hour++,Min1=0;
	MOVW R30,R12
	ADIW R30,1
	MOVW R12,R30
	CLR  R10
	CLR  R11
; 0000 00BF           if(Hour==12){
	LDI  R30,LOW(12)
	LDI  R31,HIGH(12)
	CP   R30,R12
	CPC  R31,R13
	BRNE _0x1B
; 0000 00C0           Sample1[0]=adc[0];
	RCALL SUBOPT_0x6
	LDI  R26,LOW(_Sample1)
	LDI  R27,HIGH(_Sample1)
	RCALL __EEPROMWRD
; 0000 00C1           Sample2[0]=adc[1];
	RCALL SUBOPT_0x7
	LDI  R26,LOW(_Sample2)
	LDI  R27,HIGH(_Sample2)
	RCALL __EEPROMWRD
; 0000 00C2           }
; 0000 00C3 
; 0000 00C4             if(Hour==24){
_0x1B:
	LDI  R30,LOW(24)
	LDI  R31,HIGH(24)
	CP   R30,R12
	CPC  R31,R13
	BRNE _0x1C
; 0000 00C5              Sample1[1]=adc[0];
	__POINTW2MN _Sample1,4
	RCALL SUBOPT_0x6
	RCALL __EEPROMWRD
; 0000 00C6              Sample2[1]=adc[1];
	__POINTW2MN _Sample2,4
	RCALL SUBOPT_0x7
	RCALL __EEPROMWRD
; 0000 00C7              Day++,Hour=0;
	LDI  R26,LOW(_Day)
	LDI  R27,HIGH(_Day)
	RCALL SUBOPT_0x8
	CLR  R12
	CLR  R13
; 0000 00C8              if(Day==7){
	LDS  R26,_Day
	LDS  R27,_Day+1
	SBIW R26,7
	BRNE _0x1D
; 0000 00C9               Day=0;
	LDI  R30,LOW(0)
	STS  _Day,R30
	STS  _Day+1,R30
; 0000 00CA            }
; 0000 00CB           }
_0x1D:
; 0000 00CC         }
_0x1C:
; 0000 00CD 
; 0000 00CE 
; 0000 00CF     }
_0x1A:
; 0000 00D0  }
_0x18:
; 0000 00D1 }
_0x17:
	RJMP _0x29
; interrupt [EXT_INT0] void ext_int0_isr(void)
; 0000 00D3 {
_ext_int0_isr:
	RCALL SUBOPT_0x3
; 0000 00D4 
; 0000 00D5         adc[0]=read_adc(0);
	RCALL SUBOPT_0x5
; 0000 00D6         adc[1]=read_adc(1);
; 0000 00D7         adc[2]=read_adc(2);
; 0000 00D8         Humidity1=(adc[0]-560)/5.6;
	RCALL SUBOPT_0x6
	__GETD2N 0x440C0000
	RCALL SUBOPT_0x9
	RCALL SUBOPT_0xA
; 0000 00D9         Humidity2=(adc[1]-560)/5.6;
	__GETD1N 0x440C0000
	RCALL __SWAPD12
	RCALL SUBOPT_0x9
	RCALL SUBOPT_0xB
; 0000 00DA         printf("Humidity1=%7.2f",Humidity1);
; 0000 00DB         delay_ms(3000);
; 0000 00DC         printf("Humidity2=%7.2f",Humidity2);
; 0000 00DD 
; 0000 00DE 
; 0000 00DF }
_0x29:
	LD   R30,Y+
	OUT  SREG,R30
	LD   R31,Y+
	LD   R30,Y+
	LD   R27,Y+
	LD   R26,Y+
	LD   R25,Y+
	LD   R24,Y+
	LD   R23,Y+
	LD   R22,Y+
	LD   R15,Y+
	LD   R1,Y+
	LD   R0,Y+
	RETI
;
;
;
;// Declare your global variables here
;void main(void)
; 0000 00E5 {
_main:
; 0000 00E6   //  printf("welcom");
; 0000 00E7 
; 0000 00E8 // Declare your local variables here
; 0000 00E9 
; 0000 00EA // Input/Output Ports initialization
; 0000 00EB // Port B initialization
; 0000 00EC // Func7=Out Func6=Out Func5=Out Func4=Out Func3=In Func2=In Func1=In Func0=In
; 0000 00ED // State7=0 State6=0 State5=0 State4=0 State3=T State2=T State1=T State0=T
; 0000 00EE PORTB=0x00;
	LDI  R30,LOW(0)
	OUT  0x18,R30
; 0000 00EF DDRB=0xF0;
	LDI  R30,LOW(240)
	OUT  0x17,R30
; 0000 00F0 
; 0000 00F1 // Port C initialization
; 0000 00F2 // Func6=In Func5=In Func4=In Func3=In Func2=In Func1=In Func0=In
; 0000 00F3 // State6=T State5=T State4=T State3=T State2=T State1=T State0=T
; 0000 00F4 PORTC=0x00;
	LDI  R30,LOW(0)
	OUT  0x15,R30
; 0000 00F5 DDRC=0x00;
	OUT  0x14,R30
; 0000 00F6 
; 0000 00F7 // Port D initialization
; 0000 00F8 // Func7=In Func6=In Func5=In Func4=In Func3=In Func2=In Func1=In Func0=In
; 0000 00F9 // State7=T State6=T State5=T State4=T State3=T State2=T State1=T State0=T
; 0000 00FA PORTD=0x00;
	OUT  0x12,R30
; 0000 00FB DDRD=0x00;
	OUT  0x11,R30
; 0000 00FC 
; 0000 00FD // Timer/Counter 0 initialization
; 0000 00FE // Clock source: System Clock
; 0000 00FF // Clock value: Timer 0 Stopped
; 0000 0100 TCCR0=0x00;
	OUT  0x33,R30
; 0000 0101 TCNT0=0x00;
	OUT  0x32,R30
; 0000 0102 
; 0000 0103 // Timer/Counter 1 initialization
; 0000 0104 // Clock source: System Clock
; 0000 0105 // Clock value: Timer1 Stopped
; 0000 0106 // Mode: Normal top=0xFFFF
; 0000 0107 // OC1A output: Discon.
; 0000 0108 // OC1B output: Discon.
; 0000 0109 // Noise Canceler: Off
; 0000 010A // Input Capture on Falling Edge
; 0000 010B // Timer1 Overflow Interrupt: Off
; 0000 010C // Input Capture Interrupt: Off
; 0000 010D // Compare A Match Interrupt: Off
; 0000 010E // Compare B Match Interrupt: Off
; 0000 010F TCCR1A=0x00;
	OUT  0x2F,R30
; 0000 0110 TCCR1B=0x00;
	OUT  0x2E,R30
; 0000 0111 TCNT1H=0x00;
	OUT  0x2D,R30
; 0000 0112 TCNT1L=0x00;
	OUT  0x2C,R30
; 0000 0113 ICR1H=0x00;
	OUT  0x27,R30
; 0000 0114 ICR1L=0x00;
	OUT  0x26,R30
; 0000 0115 OCR1AH=0x00;
	OUT  0x2B,R30
; 0000 0116 OCR1AL=0x00;
	OUT  0x2A,R30
; 0000 0117 OCR1BH=0x00;
	OUT  0x29,R30
; 0000 0118 OCR1BL=0x00;
	OUT  0x28,R30
; 0000 0119 
; 0000 011A // Timer/Counter 2 initialization
; 0000 011B // Clock source: System Clock
; 0000 011C // Clock value: Timer2 Stopped
; 0000 011D // Mode: Normal top=0xFF
; 0000 011E // OC2 output: Disconnected
; 0000 011F ASSR=0x00;
	OUT  0x22,R30
; 0000 0120 TCCR2=0x0F;
	LDI  R30,LOW(15)
	OUT  0x25,R30
; 0000 0121 TCNT2=0x00;
	LDI  R30,LOW(0)
	OUT  0x24,R30
; 0000 0122 OCR2=0x60;
	LDI  R30,LOW(96)
	OUT  0x23,R30
; 0000 0123 
; 0000 0124 // External Interrupt(s) initialization
; 0000 0125 // INT0: On
; 0000 0126 // INT0 Mode: Falling Edge
; 0000 0127 // INT1: Off
; 0000 0128 GICR|=0x40;
	IN   R30,0x3B
	ORI  R30,0x40
	OUT  0x3B,R30
; 0000 0129 MCUCR=0x02;
	LDI  R30,LOW(2)
	OUT  0x35,R30
; 0000 012A GIFR=0x40;
	LDI  R30,LOW(64)
	OUT  0x3A,R30
; 0000 012B 
; 0000 012C // Timer(s)/Counter(s) Interrupt(s) initialization
; 0000 012D TIMSK=0x80;
	LDI  R30,LOW(128)
	OUT  0x39,R30
; 0000 012E 
; 0000 012F // USART initialization
; 0000 0130 // Communication Parameters: 8 Data, 1 Stop, No Parity
; 0000 0131 // USART Receiver: On
; 0000 0132 // USART Transmitter: On
; 0000 0133 // USART Mode: Asynchronous
; 0000 0134 // USART Baud Rate: 4800
; 0000 0135 UCSRA=0x00;
	LDI  R30,LOW(0)
	OUT  0xB,R30
; 0000 0136 UCSRB=0xD8;
	LDI  R30,LOW(216)
	OUT  0xA,R30
; 0000 0137 UCSRC=0x86;
	LDI  R30,LOW(134)
	OUT  0x20,R30
; 0000 0138 UBRRH=0x00;
	LDI  R30,LOW(0)
	OUT  0x20,R30
; 0000 0139 UBRRL=0x0C;
	LDI  R30,LOW(12)
	OUT  0x9,R30
; 0000 013A 
; 0000 013B // Analog Comparator initialization
; 0000 013C // Analog Comparator: Off
; 0000 013D // Analog Comparator Input Capture by Timer/Counter 1: Off
; 0000 013E ACSR=0x80;
	LDI  R30,LOW(128)
	OUT  0x8,R30
; 0000 013F SFIOR=0x00;
	LDI  R30,LOW(0)
	OUT  0x30,R30
; 0000 0140 
; 0000 0141 // ADC initialization
; 0000 0142 // ADC Clock frequency: 500.000 kHz
; 0000 0143 // ADC Voltage Reference: AREF pin
; 0000 0144 ADMUX=ADC_VREF_TYPE & 0xff;
	OUT  0x7,R30
; 0000 0145 ADCSRA=0x81;
	LDI  R30,LOW(129)
	OUT  0x6,R30
; 0000 0146 
; 0000 0147 // SPI initialization
; 0000 0148 // SPI disabled
; 0000 0149 SPCR=0x00;
	LDI  R30,LOW(0)
	OUT  0xD,R30
; 0000 014A 
; 0000 014B // TWI initialization
; 0000 014C // TWI disabled
; 0000 014D TWCR=0x00;
	OUT  0x36,R30
; 0000 014E 
; 0000 014F // Global enable interrupts
; 0000 0150 #asm("sei")
	sei
; 0000 0151 
; 0000 0152 
; 0000 0153 
; 0000 0154 while (1)
_0x1E:
; 0000 0155    {
; 0000 0156 
; 0000 0157 
; 0000 0158           if(Min==1) {
	RCALL SUBOPT_0xC
	BRNE _0x21
; 0000 0159             Humidity1=(adc[0]-580)/5.6;
	RCALL SUBOPT_0x6
	__GETD2N 0x44110000
	RCALL SUBOPT_0x9
	RCALL SUBOPT_0xA
; 0000 015A             Humidity2=(adc[1]-580)/5.6;
	__GETD1N 0x44110000
	RCALL __SWAPD12
	RCALL SUBOPT_0x9
	RCALL SUBOPT_0xB
; 0000 015B             printf("Humidity1=%7.2f",Humidity1);
; 0000 015C             delay_ms(3000);
; 0000 015D             printf("Humidity2=%7.2f",Humidity2);
; 0000 015E             while(Min==1){}
_0x22:
	RCALL SUBOPT_0xC
	BREQ _0x22
; 0000 015F           }
; 0000 0160 
; 0000 0161           if(Min==0||Min==1||Min==2){
_0x21:
	CLR  R0
	CP   R0,R6
	CPC  R0,R7
	BREQ _0x26
	RCALL SUBOPT_0xC
	BREQ _0x26
	RCALL SUBOPT_0x4
	BREQ _0x26
	RJMP _0x25
_0x26:
; 0000 0162            DailyAverage1=(Sample1[0]+Sample1[1])/2;
	LDI  R26,LOW(_Sample1)
	LDI  R27,HIGH(_Sample1)
	RCALL __EEPROMRDD
	PUSH R23
	PUSH R22
	PUSH R31
	PUSH R30
	__POINTW2MN _Sample1,4
	RCALL __EEPROMRDD
	POP  R26
	POP  R27
	POP  R24
	POP  R25
	RCALL SUBOPT_0xD
	LDI  R26,LOW(_DailyAverage1)
	LDI  R27,HIGH(_DailyAverage1)
	RCALL __EEPROMWRD
; 0000 0163            DailyAverage2=(Sample2[0]+Sample2[1])/2;
	LDI  R26,LOW(_Sample2)
	LDI  R27,HIGH(_Sample2)
	RCALL __EEPROMRDD
	PUSH R23
	PUSH R22
	PUSH R31
	PUSH R30
	__POINTW2MN _Sample2,4
	RCALL __EEPROMRDD
	POP  R26
	POP  R27
	POP  R24
	POP  R25
	RCALL SUBOPT_0xD
	LDI  R26,LOW(_DailyAverage2)
	LDI  R27,HIGH(_DailyAverage2)
	RCALL __EEPROMWRD
; 0000 0164            Graph1[6]=DailyAverage1;
	LDI  R26,LOW(_DailyAverage1)
	LDI  R27,HIGH(_DailyAverage1)
	RCALL __EEPROMRDD
	__POINTW2MN _Graph1,12
	RCALL __CFD1
	ST   X+,R30
	ST   X,R31
; 0000 0165            Graph2[6]=DailyAverage2;
	LDI  R26,LOW(_DailyAverage2)
	LDI  R27,HIGH(_DailyAverage2)
	RCALL __EEPROMRDD
	__POINTW2MN _Graph2,12
	RCALL __CFD1
	ST   X+,R30
	ST   X,R31
; 0000 0166            printf("Graph1=%d",Graph1[6]);
	__POINTW1FN _0x0,32
	RCALL SUBOPT_0xE
	RCALL SUBOPT_0xF
	RCALL SUBOPT_0x10
; 0000 0167            delay_ms(3000);
	LDI  R26,LOW(3000)
	LDI  R27,HIGH(3000)
	RCALL _delay_ms
; 0000 0168            printf("Graph2=%d",Graph2[6]);
	__POINTW1FN _0x0,42
	RCALL SUBOPT_0xE
	RCALL SUBOPT_0x11
	RCALL SUBOPT_0x10
; 0000 0169            Graph1[6]<<1;
	RCALL SUBOPT_0xF
	LSL  R30
	ROL  R31
; 0000 016A            Graph2[6]<<1;
	RCALL SUBOPT_0x11
	LSL  R30
	ROL  R31
; 0000 016B 
; 0000 016C 
; 0000 016D 
; 0000 016E           }
; 0000 016F     }
_0x25:
	RJMP _0x1E
; 0000 0170  }
_0x28:
	RJMP _0x28
	#ifndef __SLEEP_DEFINED__
	#define __SLEEP_DEFINED__
	.EQU __se_bit=0x80
	.EQU __sm_mask=0x70
	.EQU __sm_powerdown=0x20
	.EQU __sm_powersave=0x30
	.EQU __sm_standby=0x60
	.EQU __sm_ext_standby=0x70
	.EQU __sm_adc_noise_red=0x10
	.SET power_ctrl_reg=mcucr
	#endif

	.CSEG
_put_usart_G100:
	RCALL SUBOPT_0x12
	LDD  R26,Y+2
	RCALL _putchar
	LD   R26,Y
	LDD  R27,Y+1
	RCALL SUBOPT_0x8
	ADIW R28,3
	RET
__ftoe_G100:
	RCALL SUBOPT_0x13
	LDI  R30,LOW(128)
	STD  Y+2,R30
	LDI  R30,LOW(63)
	STD  Y+3,R30
	RCALL __SAVELOCR4
	LDD  R30,Y+14
	LDD  R31,Y+14+1
	CPI  R30,LOW(0xFFFF)
	LDI  R26,HIGH(0xFFFF)
	CPC  R31,R26
	BRNE _0x2000019
	LDD  R30,Y+8
	LDD  R31,Y+8+1
	RCALL SUBOPT_0xE
	__POINTW2FN _0x2000000,0
	RCALL _strcpyf
	RJMP _0x20A0004
_0x2000019:
	CPI  R30,LOW(0x7FFF)
	LDI  R26,HIGH(0x7FFF)
	CPC  R31,R26
	BRNE _0x2000018
	RCALL SUBOPT_0x14
	RCALL SUBOPT_0xE
	__POINTW2FN _0x2000000,1
	RCALL _strcpyf
	RJMP _0x20A0004
_0x2000018:
	LDD  R26,Y+11
	CPI  R26,LOW(0x7)
	BRLO _0x200001B
	LDI  R30,LOW(6)
	STD  Y+11,R30
_0x200001B:
	LDD  R17,Y+11
_0x200001C:
	RCALL SUBOPT_0x15
	BREQ _0x200001E
	RCALL SUBOPT_0x16
	RJMP _0x200001C
_0x200001E:
	RCALL SUBOPT_0x17
	RCALL __CPD10
	BRNE _0x200001F
	LDI  R19,LOW(0)
	RCALL SUBOPT_0x16
	RJMP _0x2000020
_0x200001F:
	LDD  R19,Y+11
	RCALL SUBOPT_0x18
	BREQ PC+2
	BRCC PC+2
	RJMP _0x2000021
	RCALL SUBOPT_0x16
_0x2000022:
	RCALL SUBOPT_0x18
	BRLO _0x2000024
	RCALL SUBOPT_0x19
	RCALL SUBOPT_0x1A
	RJMP _0x2000022
_0x2000024:
	RJMP _0x2000025
_0x2000021:
_0x2000026:
	RCALL SUBOPT_0x18
	BRSH _0x2000028
	RCALL SUBOPT_0x19
	RCALL SUBOPT_0x1B
	RCALL SUBOPT_0x1C
	SUBI R19,LOW(1)
	RJMP _0x2000026
_0x2000028:
	RCALL SUBOPT_0x16
_0x2000025:
	RCALL SUBOPT_0x17
	RCALL SUBOPT_0x1D
	RCALL SUBOPT_0x1C
	RCALL SUBOPT_0x18
	BRLO _0x2000029
	RCALL SUBOPT_0x19
	RCALL SUBOPT_0x1A
_0x2000029:
_0x2000020:
	LDI  R17,LOW(0)
_0x200002A:
	LDD  R30,Y+11
	CP   R30,R17
	BRLO _0x200002C
	RCALL SUBOPT_0x1E
	RCALL SUBOPT_0x1F
	RCALL SUBOPT_0x1D
	MOVW R26,R30
	MOVW R24,R22
	RCALL _floor
	__PUTD1S 4
	RCALL SUBOPT_0x19
	RCALL __DIVF21
	RCALL __CFD1U
	MOV  R16,R30
	RCALL SUBOPT_0x20
	RCALL SUBOPT_0x21
	CLR  R31
	CLR  R22
	CLR  R23
	RCALL __CDF1
	RCALL SUBOPT_0x1E
	RCALL __MULF12
	RCALL SUBOPT_0x19
	RCALL __SWAPD12
	RCALL __SUBF12
	RCALL SUBOPT_0x1C
	MOV  R30,R17
	SUBI R17,-1
	CPI  R30,0
	BRNE _0x200002A
	RCALL SUBOPT_0x20
	LDI  R30,LOW(46)
	ST   X,R30
	RJMP _0x200002A
_0x200002C:
	RCALL SUBOPT_0x22
	SBIW R30,1
	LDD  R26,Y+10
	STD  Z+0,R26
	CPI  R19,0
	BRGE _0x200002E
	NEG  R19
	LDD  R26,Y+8
	LDD  R27,Y+8+1
	LDI  R30,LOW(45)
	RJMP _0x200010E
_0x200002E:
	LDD  R26,Y+8
	LDD  R27,Y+8+1
	LDI  R30,LOW(43)
_0x200010E:
	ST   X,R30
	RCALL SUBOPT_0x22
	RCALL SUBOPT_0x22
	RCALL SUBOPT_0x23
	RCALL __DIVB21
	SUBI R30,-LOW(48)
	MOVW R26,R22
	ST   X,R30
	RCALL SUBOPT_0x22
	RCALL SUBOPT_0x23
	RCALL __MODB21
	SUBI R30,-LOW(48)
	MOVW R26,R22
	ST   X,R30
	LDD  R26,Y+8
	LDD  R27,Y+8+1
	LDI  R30,LOW(0)
	ST   X,R30
_0x20A0004:
	RCALL __LOADLOCR4
	ADIW R28,16
	RET
__print_G100:
	RCALL SUBOPT_0x12
	SBIW R28,63
	SBIW R28,17
	RCALL __SAVELOCR6
	LDI  R17,0
	__GETW1SX 88
	STD  Y+8,R30
	STD  Y+8+1,R31
	__GETW1SX 86
	STD  Y+6,R30
	STD  Y+6+1,R31
	RCALL SUBOPT_0x24
	LDI  R30,LOW(0)
	LDI  R31,HIGH(0)
	ST   X+,R30
	ST   X,R31
_0x2000030:
	MOVW R26,R28
	SUBI R26,LOW(-(92))
	SBCI R27,HIGH(-(92))
	RCALL SUBOPT_0x8
	SBIW R30,1
	LPM  R30,Z
	MOV  R18,R30
	CPI  R30,0
	BRNE PC+2
	RJMP _0x2000032
	MOV  R30,R17
	CPI  R30,0
	BRNE _0x2000036
	CPI  R18,37
	BRNE _0x2000037
	LDI  R17,LOW(1)
	RJMP _0x2000038
_0x2000037:
	RCALL SUBOPT_0x25
_0x2000038:
	RJMP _0x2000035
_0x2000036:
	CPI  R30,LOW(0x1)
	BRNE _0x2000039
	CPI  R18,37
	BRNE _0x200003A
	RCALL SUBOPT_0x25
	RJMP _0x200010F
_0x200003A:
	LDI  R17,LOW(2)
	LDI  R30,LOW(0)
	STD  Y+21,R30
	LDI  R16,LOW(0)
	CPI  R18,45
	BRNE _0x200003B
	LDI  R16,LOW(1)
	RJMP _0x2000035
_0x200003B:
	CPI  R18,43
	BRNE _0x200003C
	LDI  R30,LOW(43)
	STD  Y+21,R30
	RJMP _0x2000035
_0x200003C:
	CPI  R18,32
	BRNE _0x200003D
	LDI  R30,LOW(32)
	STD  Y+21,R30
	RJMP _0x2000035
_0x200003D:
	RJMP _0x200003E
_0x2000039:
	CPI  R30,LOW(0x2)
	BRNE _0x200003F
_0x200003E:
	LDI  R21,LOW(0)
	LDI  R17,LOW(3)
	CPI  R18,48
	BRNE _0x2000040
	ORI  R16,LOW(128)
	RJMP _0x2000035
_0x2000040:
	RJMP _0x2000041
_0x200003F:
	CPI  R30,LOW(0x3)
	BRNE _0x2000042
_0x2000041:
	CPI  R18,48
	BRLO _0x2000044
	CPI  R18,58
	BRLO _0x2000045
_0x2000044:
	RJMP _0x2000043
_0x2000045:
	LDI  R26,LOW(10)
	MUL  R21,R26
	MOV  R21,R0
	MOV  R30,R18
	SUBI R30,LOW(48)
	ADD  R21,R30
	RJMP _0x2000035
_0x2000043:
	LDI  R20,LOW(0)
	CPI  R18,46
	BRNE _0x2000046
	LDI  R17,LOW(4)
	RJMP _0x2000035
_0x2000046:
	RJMP _0x2000047
_0x2000042:
	CPI  R30,LOW(0x4)
	BRNE _0x2000049
	CPI  R18,48
	BRLO _0x200004B
	CPI  R18,58
	BRLO _0x200004C
_0x200004B:
	RJMP _0x200004A
_0x200004C:
	ORI  R16,LOW(32)
	LDI  R26,LOW(10)
	MUL  R20,R26
	MOV  R20,R0
	MOV  R30,R18
	SUBI R30,LOW(48)
	ADD  R20,R30
	RJMP _0x2000035
_0x200004A:
_0x2000047:
	CPI  R18,108
	BRNE _0x200004D
	ORI  R16,LOW(2)
	LDI  R17,LOW(5)
	RJMP _0x2000035
_0x200004D:
	RJMP _0x200004E
_0x2000049:
	CPI  R30,LOW(0x5)
	BREQ PC+2
	RJMP _0x2000035
_0x200004E:
	MOV  R30,R18
	CPI  R30,LOW(0x63)
	BRNE _0x2000053
	RCALL SUBOPT_0x26
	RCALL SUBOPT_0x27
	RCALL SUBOPT_0x26
	LDD  R26,Z+4
	ST   -Y,R26
	RCALL SUBOPT_0x28
	RJMP _0x2000054
_0x2000053:
	CPI  R30,LOW(0x45)
	BREQ _0x2000057
	CPI  R30,LOW(0x65)
	BRNE _0x2000058
_0x2000057:
	RJMP _0x2000059
_0x2000058:
	CPI  R30,LOW(0x66)
	BRNE _0x200005A
_0x2000059:
	RCALL SUBOPT_0x29
	RCALL SUBOPT_0x2A
	RCALL __GETD1P
	RCALL SUBOPT_0x2B
	RCALL SUBOPT_0x2C
	LDD  R26,Y+13
	TST  R26
	BRMI _0x200005B
	LDD  R26,Y+21
	CPI  R26,LOW(0x2B)
	BREQ _0x200005D
	RJMP _0x200005E
_0x200005B:
	RCALL SUBOPT_0x2D
	RCALL __ANEGF1
	RCALL SUBOPT_0x2B
	LDI  R30,LOW(45)
	STD  Y+21,R30
_0x200005D:
	SBRS R16,7
	RJMP _0x200005F
	LDD  R30,Y+21
	ST   -Y,R30
	RCALL SUBOPT_0x28
	RJMP _0x2000060
_0x200005F:
	LDD  R30,Y+14
	LDD  R31,Y+14+1
	ADIW R30,1
	RCALL SUBOPT_0x2E
	SBIW R30,1
	LDD  R26,Y+21
	STD  Z+0,R26
_0x2000060:
_0x200005E:
	SBRS R16,5
	LDI  R20,LOW(6)
	CPI  R18,102
	BRNE _0x2000062
	RCALL SUBOPT_0x2D
	RCALL __PUTPARD1
	ST   -Y,R20
	LDD  R26,Y+19
	LDD  R27,Y+19+1
	RCALL _ftoa
	RJMP _0x2000063
_0x2000062:
	RCALL SUBOPT_0x2D
	RCALL __PUTPARD1
	ST   -Y,R20
	ST   -Y,R18
	LDD  R26,Y+20
	LDD  R27,Y+20+1
	RCALL __ftoe_G100
_0x2000063:
	RCALL SUBOPT_0x29
	RCALL SUBOPT_0x2F
	RJMP _0x2000064
_0x200005A:
	CPI  R30,LOW(0x73)
	BRNE _0x2000066
	RCALL SUBOPT_0x2C
	RCALL SUBOPT_0x30
	RCALL SUBOPT_0x2F
	RJMP _0x2000067
_0x2000066:
	CPI  R30,LOW(0x70)
	BRNE _0x2000069
	RCALL SUBOPT_0x2C
	RCALL SUBOPT_0x30
	LDD  R26,Y+14
	LDD  R27,Y+14+1
	RCALL _strlenf
	MOV  R17,R30
	ORI  R16,LOW(8)
_0x2000067:
	ANDI R16,LOW(127)
	CPI  R20,0
	BREQ _0x200006B
	CP   R20,R17
	BRLO _0x200006C
_0x200006B:
	RJMP _0x200006A
_0x200006C:
	MOV  R17,R20
_0x200006A:
_0x2000064:
	LDI  R20,LOW(0)
	LDI  R30,LOW(0)
	STD  Y+20,R30
	LDI  R19,LOW(0)
	RJMP _0x200006D
_0x2000069:
	CPI  R30,LOW(0x64)
	BREQ _0x2000070
	CPI  R30,LOW(0x69)
	BRNE _0x2000071
_0x2000070:
	ORI  R16,LOW(4)
	RJMP _0x2000072
_0x2000071:
	CPI  R30,LOW(0x75)
	BRNE _0x2000073
_0x2000072:
	LDI  R30,LOW(10)
	STD  Y+20,R30
	SBRS R16,1
	RJMP _0x2000074
	__GETD1N 0x3B9ACA00
	RCALL SUBOPT_0x31
	LDI  R17,LOW(10)
	RJMP _0x2000075
_0x2000074:
	__GETD1N 0x2710
	RCALL SUBOPT_0x31
	LDI  R17,LOW(5)
	RJMP _0x2000075
_0x2000073:
	CPI  R30,LOW(0x58)
	BRNE _0x2000077
	ORI  R16,LOW(8)
	RJMP _0x2000078
_0x2000077:
	CPI  R30,LOW(0x78)
	BREQ PC+2
	RJMP _0x20000B6
_0x2000078:
	LDI  R30,LOW(16)
	STD  Y+20,R30
	SBRS R16,1
	RJMP _0x200007A
	__GETD1N 0x10000000
	RCALL SUBOPT_0x31
	LDI  R17,LOW(8)
	RJMP _0x2000075
_0x200007A:
	__GETD1N 0x1000
	RCALL SUBOPT_0x31
	LDI  R17,LOW(4)
_0x2000075:
	CPI  R20,0
	BREQ _0x200007B
	ANDI R16,LOW(127)
	RJMP _0x200007C
_0x200007B:
	LDI  R20,LOW(1)
_0x200007C:
	SBRS R16,1
	RJMP _0x200007D
	RCALL SUBOPT_0x2C
	RCALL SUBOPT_0x2A
	ADIW R26,4
	RCALL __GETD1P
	RJMP _0x2000110
_0x200007D:
	SBRS R16,2
	RJMP _0x200007F
	RCALL SUBOPT_0x2C
	RCALL SUBOPT_0x2A
	ADIW R26,4
	RCALL __GETW1P
	RCALL __CWD1
	RJMP _0x2000110
_0x200007F:
	RCALL SUBOPT_0x2C
	RCALL SUBOPT_0x2A
	ADIW R26,4
	RCALL __GETW1P
	CLR  R22
	CLR  R23
_0x2000110:
	__PUTD1S 10
	SBRS R16,2
	RJMP _0x2000081
	LDD  R26,Y+13
	TST  R26
	BRPL _0x2000082
	RCALL SUBOPT_0x2D
	RCALL __ANEGD1
	RCALL SUBOPT_0x2B
	LDI  R30,LOW(45)
	STD  Y+21,R30
_0x2000082:
	LDD  R30,Y+21
	CPI  R30,0
	BREQ _0x2000083
	SUBI R17,-LOW(1)
	SUBI R20,-LOW(1)
	RJMP _0x2000084
_0x2000083:
	ANDI R16,LOW(251)
_0x2000084:
_0x2000081:
	MOV  R19,R20
_0x200006D:
	SBRC R16,0
	RJMP _0x2000085
_0x2000086:
	CP   R17,R21
	BRSH _0x2000089
	CP   R19,R21
	BRLO _0x200008A
_0x2000089:
	RJMP _0x2000088
_0x200008A:
	SBRS R16,7
	RJMP _0x200008B
	SBRS R16,2
	RJMP _0x200008C
	ANDI R16,LOW(251)
	LDD  R18,Y+21
	SUBI R17,LOW(1)
	RJMP _0x200008D
_0x200008C:
	LDI  R18,LOW(48)
_0x200008D:
	RJMP _0x200008E
_0x200008B:
	LDI  R18,LOW(32)
_0x200008E:
	RCALL SUBOPT_0x25
	SUBI R21,LOW(1)
	RJMP _0x2000086
_0x2000088:
_0x2000085:
_0x200008F:
	CP   R17,R20
	BRSH _0x2000091
	ORI  R16,LOW(16)
	SBRS R16,2
	RJMP _0x2000092
	RCALL SUBOPT_0x32
	BREQ _0x2000093
	SUBI R21,LOW(1)
_0x2000093:
	SUBI R17,LOW(1)
	SUBI R20,LOW(1)
_0x2000092:
	LDI  R30,LOW(48)
	ST   -Y,R30
	RCALL SUBOPT_0x28
	CPI  R21,0
	BREQ _0x2000094
	SUBI R21,LOW(1)
_0x2000094:
	SUBI R20,LOW(1)
	RJMP _0x200008F
_0x2000091:
	MOV  R19,R17
	LDD  R30,Y+20
	CPI  R30,0
	BRNE _0x2000095
_0x2000096:
	CPI  R19,0
	BREQ _0x2000098
	SBRS R16,3
	RJMP _0x2000099
	LDD  R30,Y+14
	LDD  R31,Y+14+1
	LPM  R18,Z+
	RCALL SUBOPT_0x2E
	RJMP _0x200009A
_0x2000099:
	LDD  R26,Y+14
	LDD  R27,Y+14+1
	LD   R18,X+
	STD  Y+14,R26
	STD  Y+14+1,R27
_0x200009A:
	RCALL SUBOPT_0x25
	CPI  R21,0
	BREQ _0x200009B
	SUBI R21,LOW(1)
_0x200009B:
	SUBI R19,LOW(1)
	RJMP _0x2000096
_0x2000098:
	RJMP _0x200009C
_0x2000095:
_0x200009E:
	RCALL SUBOPT_0x33
	RCALL __DIVD21U
	MOV  R18,R30
	CPI  R18,10
	BRLO _0x20000A0
	SBRS R16,3
	RJMP _0x20000A1
	SUBI R18,-LOW(55)
	RJMP _0x20000A2
_0x20000A1:
	SUBI R18,-LOW(87)
_0x20000A2:
	RJMP _0x20000A3
_0x20000A0:
	SUBI R18,-LOW(48)
_0x20000A3:
	SBRC R16,4
	RJMP _0x20000A5
	CPI  R18,49
	BRSH _0x20000A7
	RCALL SUBOPT_0x34
	__CPD2N 0x1
	BRNE _0x20000A6
_0x20000A7:
	RJMP _0x20000A9
_0x20000A6:
	CP   R20,R19
	BRSH _0x2000111
	CP   R21,R19
	BRLO _0x20000AC
	SBRS R16,0
	RJMP _0x20000AD
_0x20000AC:
	RJMP _0x20000AB
_0x20000AD:
	LDI  R18,LOW(32)
	SBRS R16,7
	RJMP _0x20000AE
_0x2000111:
	LDI  R18,LOW(48)
_0x20000A9:
	ORI  R16,LOW(16)
	SBRS R16,2
	RJMP _0x20000AF
	RCALL SUBOPT_0x32
	BREQ _0x20000B0
	SUBI R21,LOW(1)
_0x20000B0:
_0x20000AF:
_0x20000AE:
_0x20000A5:
	RCALL SUBOPT_0x25
	CPI  R21,0
	BREQ _0x20000B1
	SUBI R21,LOW(1)
_0x20000B1:
_0x20000AB:
	SUBI R19,LOW(1)
	RCALL SUBOPT_0x33
	RCALL __MODD21U
	RCALL SUBOPT_0x2B
	LDD  R30,Y+20
	RCALL SUBOPT_0x34
	CLR  R31
	CLR  R22
	CLR  R23
	RCALL __DIVD21U
	RCALL SUBOPT_0x31
	__GETD1S 16
	RCALL __CPD10
	BREQ _0x200009F
	RJMP _0x200009E
_0x200009F:
_0x200009C:
	SBRS R16,0
	RJMP _0x20000B2
_0x20000B3:
	CPI  R21,0
	BREQ _0x20000B5
	SUBI R21,LOW(1)
	LDI  R30,LOW(32)
	ST   -Y,R30
	RCALL SUBOPT_0x28
	RJMP _0x20000B3
_0x20000B5:
_0x20000B2:
_0x20000B6:
_0x2000054:
_0x200010F:
	LDI  R17,LOW(0)
_0x2000035:
	RJMP _0x2000030
_0x2000032:
	RCALL SUBOPT_0x24
	RCALL __GETW1P
	RCALL __LOADLOCR6
	ADIW R28,63
	ADIW R28,31
	RET
_printf:
	PUSH R15
	MOV  R15,R24
	SBIW R28,6
	RCALL __SAVELOCR2
	MOVW R26,R28
	ADIW R26,4
	RCALL __ADDW2R15
	MOVW R16,R26
	LDI  R30,LOW(0)
	STD  Y+4,R30
	STD  Y+4+1,R30
	STD  Y+6,R30
	STD  Y+6+1,R30
	MOVW R26,R28
	ADIW R26,8
	RCALL __ADDW2R15
	RCALL __GETW1P
	RCALL SUBOPT_0xE
	ST   -Y,R17
	ST   -Y,R16
	LDI  R30,LOW(_put_usart_G100)
	LDI  R31,HIGH(_put_usart_G100)
	RCALL SUBOPT_0xE
	MOVW R26,R28
	ADIW R26,8
	RCALL __print_G100
	RCALL __LOADLOCR2
	ADIW R28,8
	POP  R15
	RET

	.CSEG

	.CSEG
_strcpyf:
	RCALL SUBOPT_0x12
    ld   r30,y+
    ld   r31,y+
    ld   r26,y+
    ld   r27,y+
    movw r24,r26
strcpyf0:
	lpm  r0,z+
    st   x+,r0
    tst  r0
    brne strcpyf0
    movw r30,r24
    ret
_strlen:
	RCALL SUBOPT_0x12
    ld   r26,y+
    ld   r27,y+
    clr  r30
    clr  r31
strlen0:
    ld   r22,x+
    tst  r22
    breq strlen1
    adiw r30,1
    rjmp strlen0
strlen1:
    ret
_strlenf:
	RCALL SUBOPT_0x12
    clr  r26
    clr  r27
    ld   r30,y+
    ld   r31,y+
strlenf0:
	lpm  r0,z+
    tst  r0
    breq strlenf1
    adiw r26,1
    rjmp strlenf0
strlenf1:
    movw r30,r26
    ret

	.CSEG
_ftrunc:
	RCALL __PUTPARD2
   ldd  r23,y+3
   ldd  r22,y+2
   ldd  r31,y+1
   ld   r30,y
   bst  r23,7
   lsl  r23
   sbrc r22,7
   sbr  r23,1
   mov  r25,r23
   subi r25,0x7e
   breq __ftrunc0
   brcs __ftrunc0
   cpi  r25,24
   brsh __ftrunc1
   clr  r26
   clr  r27
   clr  r24
__ftrunc2:
   sec
   ror  r24
   ror  r27
   ror  r26
   dec  r25
   brne __ftrunc2
   and  r30,r26
   and  r31,r27
   and  r22,r24
   rjmp __ftrunc1
__ftrunc0:
   clt
   clr  r23
   clr  r30
   clr  r31
   clr  r22
__ftrunc1:
   cbr  r22,0x80
   lsr  r23
   brcc __ftrunc3
   sbr  r22,0x80
__ftrunc3:
   bld  r23,7
   ld   r26,y+
   ld   r27,y+
   ld   r24,y+
   ld   r25,y+
   cp   r30,r26
   cpc  r31,r27
   cpc  r22,r24
   cpc  r23,r25
   bst  r25,7
   ret
_floor:
	RCALL __PUTPARD2
	RCALL __GETD2S0
	RCALL _ftrunc
	RCALL __PUTD1S0
    brne __floor1
__floor0:
	RCALL SUBOPT_0x35
	RJMP _0x20A0003
__floor1:
    brtc __floor0
	RCALL SUBOPT_0x35
	__GETD2N 0x3F800000
	RCALL __SUBF12
_0x20A0003:
	ADIW R28,4
	RET

	.CSEG
_ftoa:
	RCALL SUBOPT_0x13
	LDI  R30,LOW(0)
	STD  Y+2,R30
	LDI  R30,LOW(63)
	STD  Y+3,R30
	RCALL __SAVELOCR2
	LDD  R30,Y+11
	LDD  R31,Y+11+1
	CPI  R30,LOW(0xFFFF)
	LDI  R26,HIGH(0xFFFF)
	CPC  R31,R26
	BRNE _0x208000D
	RCALL SUBOPT_0x36
	__POINTW2FN _0x2080000,0
	RCALL _strcpyf
	RJMP _0x20A0002
_0x208000D:
	CPI  R30,LOW(0x7FFF)
	LDI  R26,HIGH(0x7FFF)
	CPC  R31,R26
	BRNE _0x208000C
	RCALL SUBOPT_0x36
	__POINTW2FN _0x2080000,1
	RCALL _strcpyf
	RJMP _0x20A0002
_0x208000C:
	LDD  R26,Y+12
	TST  R26
	BRPL _0x208000F
	RCALL SUBOPT_0x37
	RCALL __ANEGF1
	RCALL SUBOPT_0x38
	RCALL SUBOPT_0x39
	LDI  R30,LOW(45)
	ST   X,R30
_0x208000F:
	LDD  R26,Y+8
	CPI  R26,LOW(0x7)
	BRLO _0x2080010
	LDI  R30,LOW(6)
	STD  Y+8,R30
_0x2080010:
	LDD  R17,Y+8
_0x2080011:
	RCALL SUBOPT_0x15
	BREQ _0x2080013
	RCALL SUBOPT_0x3A
	RCALL SUBOPT_0x1F
	RCALL SUBOPT_0x3B
	RJMP _0x2080011
_0x2080013:
	RCALL SUBOPT_0x3C
	RCALL __ADDF12
	RCALL SUBOPT_0x38
	LDI  R17,LOW(0)
	__GETD1N 0x3F800000
	RCALL SUBOPT_0x3B
_0x2080014:
	RCALL SUBOPT_0x3C
	RCALL __CMPF12
	BRLO _0x2080016
	RCALL SUBOPT_0x3A
	RCALL SUBOPT_0x1B
	RCALL SUBOPT_0x3B
	SUBI R17,-LOW(1)
	CPI  R17,39
	BRLO _0x2080017
	RCALL SUBOPT_0x36
	__POINTW2FN _0x2080000,5
	RCALL _strcpyf
	RJMP _0x20A0002
_0x2080017:
	RJMP _0x2080014
_0x2080016:
	CPI  R17,0
	BRNE _0x2080018
	RCALL SUBOPT_0x39
	LDI  R30,LOW(48)
	ST   X,R30
	RJMP _0x2080019
_0x2080018:
_0x208001A:
	RCALL SUBOPT_0x15
	BREQ _0x208001C
	RCALL SUBOPT_0x3A
	RCALL SUBOPT_0x1F
	RCALL SUBOPT_0x1D
	MOVW R26,R30
	MOVW R24,R22
	RCALL _floor
	RCALL SUBOPT_0x3B
	RCALL SUBOPT_0x3C
	RCALL __DIVF21
	RCALL __CFD1U
	MOV  R16,R30
	RCALL SUBOPT_0x39
	RCALL SUBOPT_0x21
	LDI  R31,0
	RCALL SUBOPT_0x3A
	RCALL __CWD1
	RCALL __CDF1
	RCALL __MULF12
	RCALL SUBOPT_0x3D
	RCALL __SWAPD12
	RCALL __SUBF12
	RCALL SUBOPT_0x38
	RJMP _0x208001A
_0x208001C:
_0x2080019:
	LDD  R30,Y+8
	CPI  R30,0
	BREQ _0x20A0001
	RCALL SUBOPT_0x39
	LDI  R30,LOW(46)
	ST   X,R30
_0x208001E:
	LDD  R30,Y+8
	SUBI R30,LOW(1)
	STD  Y+8,R30
	SUBI R30,-LOW(1)
	BREQ _0x2080020
	RCALL SUBOPT_0x3D
	RCALL SUBOPT_0x1B
	RCALL SUBOPT_0x38
	RCALL SUBOPT_0x37
	RCALL __CFD1U
	MOV  R16,R30
	RCALL SUBOPT_0x39
	RCALL SUBOPT_0x21
	LDI  R31,0
	RCALL SUBOPT_0x3D
	RCALL __CWD1
	RCALL __CDF1
	RCALL __SWAPD12
	RCALL __SUBF12
	RCALL SUBOPT_0x38
	RJMP _0x208001E
_0x2080020:
_0x20A0001:
	LDD  R26,Y+6
	LDD  R27,Y+6+1
	LDI  R30,LOW(0)
	ST   X,R30
_0x20A0002:
	RCALL __LOADLOCR2
	ADIW R28,13
	RET

	.DSEG

	.CSEG

	.DSEG
_Humidity1:
	.BYTE 0x4
_Humidity2:
	.BYTE 0x4
_adc:
	.BYTE 0xC

	.ESEG
_DailyAverage1:
	.DB  0x0,0x0,0x0,0x0
_DailyAverage2:
	.DB  0x0,0x0,0x0,0x0
_Sample1:
	.BYTE 0x8
_Sample2:
	.BYTE 0x8

	.DSEG
_Graph1:
	.BYTE 0xE
_Graph2:
	.BYTE 0xE
_Day:
	.BYTE 0x2
_rx_buffer:
	.BYTE 0x40
_rx_wr_index:
	.BYTE 0x1
_rx_rd_index:
	.BYTE 0x1
_rx_counter:
	.BYTE 0x1
_tx_buffer:
	.BYTE 0x64
_tx_wr_index:
	.BYTE 0x1
_tx_rd_index:
	.BYTE 0x1
_tx_counter:
	.BYTE 0x1
__seed_G104:
	.BYTE 0x4

	.CSEG
;OPTIMIZER ADDED SUBROUTINE, CALLED 2 TIMES, CODE SIZE REDUCTION:2 WORDS
SUBOPT_0x0:
	ST   -Y,R26
	ST   -Y,R30
	ST   -Y,R31
	IN   R30,SREG
	ST   -Y,R30
	RET

;OPTIMIZER ADDED SUBROUTINE, CALLED 3 TIMES, CODE SIZE REDUCTION:4 WORDS
SUBOPT_0x1:
	SUBI R30,LOW(1)
	LDI  R31,0
	RET

;OPTIMIZER ADDED SUBROUTINE, CALLED 4 TIMES, CODE SIZE REDUCTION:1 WORDS
SUBOPT_0x2:
	LDS  R30,_tx_counter
	RET

;OPTIMIZER ADDED SUBROUTINE, CALLED 2 TIMES, CODE SIZE REDUCTION:10 WORDS
SUBOPT_0x3:
	ST   -Y,R0
	ST   -Y,R1
	ST   -Y,R15
	ST   -Y,R22
	ST   -Y,R23
	ST   -Y,R24
	ST   -Y,R25
	ST   -Y,R26
	ST   -Y,R27
	ST   -Y,R30
	ST   -Y,R31
	IN   R30,SREG
	ST   -Y,R30
	RET

;OPTIMIZER ADDED SUBROUTINE, CALLED 2 TIMES, CODE SIZE REDUCTION:1 WORDS
SUBOPT_0x4:
	LDI  R30,LOW(2)
	LDI  R31,HIGH(2)
	CP   R30,R6
	CPC  R31,R7
	RET

;OPTIMIZER ADDED SUBROUTINE, CALLED 2 TIMES, CODE SIZE REDUCTION:21 WORDS
SUBOPT_0x5:
	LDI  R26,LOW(0)
	RCALL _read_adc
	LDI  R26,LOW(_adc)
	LDI  R27,HIGH(_adc)
	CLR  R22
	CLR  R23
	RCALL __CDF1
	RCALL __PUTDP1
	LDI  R26,LOW(1)
	RCALL _read_adc
	__POINTW2MN _adc,4
	CLR  R22
	CLR  R23
	RCALL __CDF1
	RCALL __PUTDP1
	LDI  R26,LOW(2)
	RCALL _read_adc
	__POINTW2MN _adc,8
	CLR  R22
	CLR  R23
	RCALL __CDF1
	RCALL __PUTDP1
	RET

;OPTIMIZER ADDED SUBROUTINE, CALLED 4 TIMES, CODE SIZE REDUCTION:19 WORDS
SUBOPT_0x6:
	LDS  R30,_adc
	LDS  R31,_adc+1
	LDS  R22,_adc+2
	LDS  R23,_adc+3
	RET

;OPTIMIZER ADDED SUBROUTINE, CALLED 2 TIMES, CODE SIZE REDUCTION:5 WORDS
SUBOPT_0x7:
	__GETD1MN _adc,4
	RET

;OPTIMIZER ADDED SUBROUTINE, CALLED 3 TIMES, CODE SIZE REDUCTION:6 WORDS
SUBOPT_0x8:
	LD   R30,X+
	LD   R31,X+
	ADIW R30,1
	ST   -X,R31
	ST   -X,R30
	RET

;OPTIMIZER ADDED SUBROUTINE, CALLED 4 TIMES, CODE SIZE REDUCTION:19 WORDS
SUBOPT_0x9:
	RCALL __SUBF12
	MOVW R26,R30
	MOVW R24,R22
	__GETD1N 0x40B33333
	RCALL __DIVF21
	RET

;OPTIMIZER ADDED SUBROUTINE, CALLED 2 TIMES, CODE SIZE REDUCTION:13 WORDS
SUBOPT_0xA:
	STS  _Humidity1,R30
	STS  _Humidity1+1,R31
	STS  _Humidity1+2,R22
	STS  _Humidity1+3,R23
	__GETD2MN _adc,4
	RET

;OPTIMIZER ADDED SUBROUTINE, CALLED 2 TIMES, CODE SIZE REDUCTION:40 WORDS
SUBOPT_0xB:
	STS  _Humidity2,R30
	STS  _Humidity2+1,R31
	STS  _Humidity2+2,R22
	STS  _Humidity2+3,R23
	__POINTW1FN _0x0,0
	ST   -Y,R31
	ST   -Y,R30
	LDS  R30,_Humidity1
	LDS  R31,_Humidity1+1
	LDS  R22,_Humidity1+2
	LDS  R23,_Humidity1+3
	RCALL __PUTPARD1
	LDI  R24,4
	RCALL _printf
	ADIW R28,6
	LDI  R26,LOW(3000)
	LDI  R27,HIGH(3000)
	RCALL _delay_ms
	__POINTW1FN _0x0,16
	ST   -Y,R31
	ST   -Y,R30
	LDS  R30,_Humidity2
	LDS  R31,_Humidity2+1
	LDS  R22,_Humidity2+2
	LDS  R23,_Humidity2+3
	RCALL __PUTPARD1
	LDI  R24,4
	RCALL _printf
	ADIW R28,6
	RET

;OPTIMIZER ADDED SUBROUTINE, CALLED 3 TIMES, CODE SIZE REDUCTION:4 WORDS
SUBOPT_0xC:
	LDI  R30,LOW(1)
	LDI  R31,HIGH(1)
	CP   R30,R6
	CPC  R31,R7
	RET

;OPTIMIZER ADDED SUBROUTINE, CALLED 2 TIMES, CODE SIZE REDUCTION:5 WORDS
SUBOPT_0xD:
	RCALL __ADDF12
	MOVW R26,R30
	MOVW R24,R22
	__GETD1N 0x40000000
	RCALL __DIVF21
	RET

;OPTIMIZER ADDED SUBROUTINE, CALLED 9 TIMES, CODE SIZE REDUCTION:6 WORDS
SUBOPT_0xE:
	ST   -Y,R31
	ST   -Y,R30
	RET

;OPTIMIZER ADDED SUBROUTINE, CALLED 2 TIMES, CODE SIZE REDUCTION:1 WORDS
SUBOPT_0xF:
	__GETW1MN _Graph1,12
	RET

;OPTIMIZER ADDED SUBROUTINE, CALLED 2 TIMES, CODE SIZE REDUCTION:3 WORDS
SUBOPT_0x10:
	RCALL __CWD1
	RCALL __PUTPARD1
	LDI  R24,4
	RCALL _printf
	ADIW R28,6
	RET

;OPTIMIZER ADDED SUBROUTINE, CALLED 2 TIMES, CODE SIZE REDUCTION:1 WORDS
SUBOPT_0x11:
	__GETW1MN _Graph2,12
	RET

;OPTIMIZER ADDED SUBROUTINE, CALLED 7 TIMES, CODE SIZE REDUCTION:4 WORDS
SUBOPT_0x12:
	ST   -Y,R27
	ST   -Y,R26
	RET

;OPTIMIZER ADDED SUBROUTINE, CALLED 2 TIMES, CODE SIZE REDUCTION:3 WORDS
SUBOPT_0x13:
	RCALL SUBOPT_0x12
	SBIW R28,4
	LDI  R30,LOW(0)
	ST   Y,R30
	STD  Y+1,R30
	RET

;OPTIMIZER ADDED SUBROUTINE, CALLED 5 TIMES, CODE SIZE REDUCTION:2 WORDS
SUBOPT_0x14:
	LDD  R30,Y+8
	LDD  R31,Y+8+1
	RET

;OPTIMIZER ADDED SUBROUTINE, CALLED 3 TIMES, CODE SIZE REDUCTION:2 WORDS
SUBOPT_0x15:
	MOV  R30,R17
	SUBI R17,1
	CPI  R30,0
	RET

;OPTIMIZER ADDED SUBROUTINE, CALLED 4 TIMES, CODE SIZE REDUCTION:34 WORDS
SUBOPT_0x16:
	__GETD2S 4
	__GETD1N 0x41200000
	RCALL __MULF12
	__PUTD1S 4
	RET

;OPTIMIZER ADDED SUBROUTINE, CALLED 2 TIMES, CODE SIZE REDUCTION:1 WORDS
SUBOPT_0x17:
	__GETD1S 12
	RET

;OPTIMIZER ADDED SUBROUTINE, CALLED 4 TIMES, CODE SIZE REDUCTION:22 WORDS
SUBOPT_0x18:
	__GETD1S 4
	__GETD2S 12
	RCALL __CMPF12
	RET

;OPTIMIZER ADDED SUBROUTINE, CALLED 5 TIMES, CODE SIZE REDUCTION:10 WORDS
SUBOPT_0x19:
	__GETD2S 12
	RET

;OPTIMIZER ADDED SUBROUTINE, CALLED 2 TIMES, CODE SIZE REDUCTION:7 WORDS
SUBOPT_0x1A:
	__GETD1N 0x3DCCCCCD
	RCALL __MULF12
	__PUTD1S 12
	SUBI R19,-LOW(1)
	RET

;OPTIMIZER ADDED SUBROUTINE, CALLED 3 TIMES, CODE SIZE REDUCTION:6 WORDS
SUBOPT_0x1B:
	__GETD1N 0x41200000
	RCALL __MULF12
	RET

;OPTIMIZER ADDED SUBROUTINE, CALLED 3 TIMES, CODE SIZE REDUCTION:4 WORDS
SUBOPT_0x1C:
	__PUTD1S 12
	RET

;OPTIMIZER ADDED SUBROUTINE, CALLED 3 TIMES, CODE SIZE REDUCTION:6 WORDS
SUBOPT_0x1D:
	__GETD2N 0x3F000000
	RCALL __ADDF12
	RET

;OPTIMIZER ADDED SUBROUTINE, CALLED 2 TIMES, CODE SIZE REDUCTION:1 WORDS
SUBOPT_0x1E:
	__GETD2S 4
	RET

;OPTIMIZER ADDED SUBROUTINE, CALLED 3 TIMES, CODE SIZE REDUCTION:6 WORDS
SUBOPT_0x1F:
	__GETD1N 0x3DCCCCCD
	RCALL __MULF12
	RET

;OPTIMIZER ADDED SUBROUTINE, CALLED 2 TIMES, CODE SIZE REDUCTION:3 WORDS
SUBOPT_0x20:
	LDD  R26,Y+8
	LDD  R27,Y+8+1
	ADIW R26,1
	STD  Y+8,R26
	STD  Y+8+1,R27
	SBIW R26,1
	RET

;OPTIMIZER ADDED SUBROUTINE, CALLED 3 TIMES, CODE SIZE REDUCTION:4 WORDS
SUBOPT_0x21:
	MOV  R30,R16
	SUBI R30,-LOW(48)
	ST   X,R30
	MOV  R30,R16
	RET

;OPTIMIZER ADDED SUBROUTINE, CALLED 4 TIMES, CODE SIZE REDUCTION:7 WORDS
SUBOPT_0x22:
	RCALL SUBOPT_0x14
	ADIW R30,1
	STD  Y+8,R30
	STD  Y+8+1,R31
	RET

;OPTIMIZER ADDED SUBROUTINE, CALLED 2 TIMES, CODE SIZE REDUCTION:1 WORDS
SUBOPT_0x23:
	SBIW R30,1
	MOVW R22,R30
	MOV  R26,R19
	LDI  R30,LOW(10)
	RET

;OPTIMIZER ADDED SUBROUTINE, CALLED 7 TIMES, CODE SIZE REDUCTION:4 WORDS
SUBOPT_0x24:
	LDD  R26,Y+6
	LDD  R27,Y+6+1
	RET

;OPTIMIZER ADDED SUBROUTINE, CALLED 5 TIMES, CODE SIZE REDUCTION:18 WORDS
SUBOPT_0x25:
	ST   -Y,R18
	LDD  R26,Y+7
	LDD  R27,Y+7+1
	LDD  R30,Y+9
	LDD  R31,Y+9+1
	ICALL
	RET

;OPTIMIZER ADDED SUBROUTINE, CALLED 8 TIMES, CODE SIZE REDUCTION:33 WORDS
SUBOPT_0x26:
	__GETW1SX 90
	RET

;OPTIMIZER ADDED SUBROUTINE, CALLED 7 TIMES, CODE SIZE REDUCTION:28 WORDS
SUBOPT_0x27:
	SBIW R30,4
	__PUTW1SX 90
	RET

;OPTIMIZER ADDED SUBROUTINE, CALLED 4 TIMES, CODE SIZE REDUCTION:10 WORDS
SUBOPT_0x28:
	LDD  R26,Y+7
	LDD  R27,Y+7+1
	LDD  R30,Y+9
	LDD  R31,Y+9+1
	ICALL
	RET

;OPTIMIZER ADDED SUBROUTINE, CALLED 2 TIMES, CODE SIZE REDUCTION:1 WORDS
SUBOPT_0x29:
	MOVW R30,R28
	ADIW R30,22
	STD  Y+14,R30
	STD  Y+14+1,R31
	RET

;OPTIMIZER ADDED SUBROUTINE, CALLED 6 TIMES, CODE SIZE REDUCTION:23 WORDS
SUBOPT_0x2A:
	__GETW2SX 90
	RET

;OPTIMIZER ADDED SUBROUTINE, CALLED 4 TIMES, CODE SIZE REDUCTION:7 WORDS
SUBOPT_0x2B:
	__PUTD1S 10
	RET

;OPTIMIZER ADDED SUBROUTINE, CALLED 6 TIMES, CODE SIZE REDUCTION:3 WORDS
SUBOPT_0x2C:
	RCALL SUBOPT_0x26
	RJMP SUBOPT_0x27

;OPTIMIZER ADDED SUBROUTINE, CALLED 4 TIMES, CODE SIZE REDUCTION:7 WORDS
SUBOPT_0x2D:
	__GETD1S 10
	RET

;OPTIMIZER ADDED SUBROUTINE, CALLED 4 TIMES, CODE SIZE REDUCTION:1 WORDS
SUBOPT_0x2E:
	STD  Y+14,R30
	STD  Y+14+1,R31
	RET

;OPTIMIZER ADDED SUBROUTINE, CALLED 2 TIMES, CODE SIZE REDUCTION:1 WORDS
SUBOPT_0x2F:
	LDD  R26,Y+14
	LDD  R27,Y+14+1
	RCALL _strlen
	MOV  R17,R30
	RET

;OPTIMIZER ADDED SUBROUTINE, CALLED 2 TIMES, CODE SIZE REDUCTION:1 WORDS
SUBOPT_0x30:
	RCALL SUBOPT_0x2A
	ADIW R26,4
	RCALL __GETW1P
	RJMP SUBOPT_0x2E

;OPTIMIZER ADDED SUBROUTINE, CALLED 5 TIMES, CODE SIZE REDUCTION:10 WORDS
SUBOPT_0x31:
	__PUTD1S 16
	RET

;OPTIMIZER ADDED SUBROUTINE, CALLED 2 TIMES, CODE SIZE REDUCTION:14 WORDS
SUBOPT_0x32:
	ANDI R16,LOW(251)
	LDD  R30,Y+21
	ST   -Y,R30
	__GETW2SX 87
	__GETW1SX 89
	ICALL
	CPI  R21,0
	RET

;OPTIMIZER ADDED SUBROUTINE, CALLED 2 TIMES, CODE SIZE REDUCTION:5 WORDS
SUBOPT_0x33:
	__GETD1S 16
	__GETD2S 10
	RET

;OPTIMIZER ADDED SUBROUTINE, CALLED 2 TIMES, CODE SIZE REDUCTION:1 WORDS
SUBOPT_0x34:
	__GETD2S 16
	RET

;OPTIMIZER ADDED SUBROUTINE, CALLED 2 TIMES, CODE SIZE REDUCTION:1 WORDS
SUBOPT_0x35:
	RCALL __GETD1S0
	RET

;OPTIMIZER ADDED SUBROUTINE, CALLED 3 TIMES, CODE SIZE REDUCTION:2 WORDS
SUBOPT_0x36:
	LDD  R30,Y+6
	LDD  R31,Y+6+1
	RJMP SUBOPT_0xE

;OPTIMIZER ADDED SUBROUTINE, CALLED 2 TIMES, CODE SIZE REDUCTION:1 WORDS
SUBOPT_0x37:
	__GETD1S 9
	RET

;OPTIMIZER ADDED SUBROUTINE, CALLED 5 TIMES, CODE SIZE REDUCTION:10 WORDS
SUBOPT_0x38:
	__PUTD1S 9
	RET

;OPTIMIZER ADDED SUBROUTINE, CALLED 5 TIMES, CODE SIZE REDUCTION:14 WORDS
SUBOPT_0x39:
	RCALL SUBOPT_0x24
	ADIW R26,1
	STD  Y+6,R26
	STD  Y+6+1,R27
	SBIW R26,1
	RET

;OPTIMIZER ADDED SUBROUTINE, CALLED 4 TIMES, CODE SIZE REDUCTION:7 WORDS
SUBOPT_0x3A:
	__GETD2S 2
	RET

;OPTIMIZER ADDED SUBROUTINE, CALLED 4 TIMES, CODE SIZE REDUCTION:7 WORDS
SUBOPT_0x3B:
	__PUTD1S 2
	RET

;OPTIMIZER ADDED SUBROUTINE, CALLED 3 TIMES, CODE SIZE REDUCTION:12 WORDS
SUBOPT_0x3C:
	__GETD1S 2
	__GETD2S 9
	RET

;OPTIMIZER ADDED SUBROUTINE, CALLED 3 TIMES, CODE SIZE REDUCTION:4 WORDS
SUBOPT_0x3D:
	__GETD2S 9
	RET


	.CSEG
_delay_ms:
	adiw r26,0
	breq __delay_ms1
__delay_ms0:
	__DELAY_USW 0xFA
	wdr
	sbiw r26,1
	brne __delay_ms0
__delay_ms1:
	ret

__ANEGF1:
	SBIW R30,0
	SBCI R22,0
	SBCI R23,0
	BREQ __ANEGF10
	SUBI R23,0x80
__ANEGF10:
	RET

__ROUND_REPACK:
	TST  R21
	BRPL __REPACK
	CPI  R21,0x80
	BRNE __ROUND_REPACK0
	SBRS R30,0
	RJMP __REPACK
__ROUND_REPACK0:
	ADIW R30,1
	ADC  R22,R25
	ADC  R23,R25
	BRVS __REPACK1

__REPACK:
	LDI  R21,0x80
	EOR  R21,R23
	BRNE __REPACK0
	PUSH R21
	RJMP __ZERORES
__REPACK0:
	CPI  R21,0xFF
	BREQ __REPACK1
	LSL  R22
	LSL  R0
	ROR  R21
	ROR  R22
	MOV  R23,R21
	RET
__REPACK1:
	PUSH R21
	TST  R0
	BRMI __REPACK2
	RJMP __MAXRES
__REPACK2:
	RJMP __MINRES

__UNPACK:
	LDI  R21,0x80
	MOV  R1,R25
	AND  R1,R21
	LSL  R24
	ROL  R25
	EOR  R25,R21
	LSL  R21
	ROR  R24

__UNPACK1:
	LDI  R21,0x80
	MOV  R0,R23
	AND  R0,R21
	LSL  R22
	ROL  R23
	EOR  R23,R21
	LSL  R21
	ROR  R22
	RET

__CFD1U:
	SET
	RJMP __CFD1U0
__CFD1:
	CLT
__CFD1U0:
	PUSH R21
	RCALL __UNPACK1
	CPI  R23,0x80
	BRLO __CFD10
	CPI  R23,0xFF
	BRCC __CFD10
	RJMP __ZERORES
__CFD10:
	LDI  R21,22
	SUB  R21,R23
	BRPL __CFD11
	NEG  R21
	CPI  R21,8
	BRTC __CFD19
	CPI  R21,9
__CFD19:
	BRLO __CFD17
	SER  R30
	SER  R31
	SER  R22
	LDI  R23,0x7F
	BLD  R23,7
	RJMP __CFD15
__CFD17:
	CLR  R23
	TST  R21
	BREQ __CFD15
__CFD18:
	LSL  R30
	ROL  R31
	ROL  R22
	ROL  R23
	DEC  R21
	BRNE __CFD18
	RJMP __CFD15
__CFD11:
	CLR  R23
__CFD12:
	CPI  R21,8
	BRLO __CFD13
	MOV  R30,R31
	MOV  R31,R22
	MOV  R22,R23
	SUBI R21,8
	RJMP __CFD12
__CFD13:
	TST  R21
	BREQ __CFD15
__CFD14:
	LSR  R23
	ROR  R22
	ROR  R31
	ROR  R30
	DEC  R21
	BRNE __CFD14
__CFD15:
	TST  R0
	BRPL __CFD16
	RCALL __ANEGD1
__CFD16:
	POP  R21
	RET

__CDF1U:
	SET
	RJMP __CDF1U0
__CDF1:
	CLT
__CDF1U0:
	SBIW R30,0
	SBCI R22,0
	SBCI R23,0
	BREQ __CDF10
	CLR  R0
	BRTS __CDF11
	TST  R23
	BRPL __CDF11
	COM  R0
	RCALL __ANEGD1
__CDF11:
	MOV  R1,R23
	LDI  R23,30
	TST  R1
__CDF12:
	BRMI __CDF13
	DEC  R23
	LSL  R30
	ROL  R31
	ROL  R22
	ROL  R1
	RJMP __CDF12
__CDF13:
	MOV  R30,R31
	MOV  R31,R22
	MOV  R22,R1
	PUSH R21
	RCALL __REPACK
	POP  R21
__CDF10:
	RET

__SWAPACC:
	PUSH R20
	MOVW R20,R30
	MOVW R30,R26
	MOVW R26,R20
	MOVW R20,R22
	MOVW R22,R24
	MOVW R24,R20
	MOV  R20,R0
	MOV  R0,R1
	MOV  R1,R20
	POP  R20
	RET

__UADD12:
	ADD  R30,R26
	ADC  R31,R27
	ADC  R22,R24
	RET

__NEGMAN1:
	COM  R30
	COM  R31
	COM  R22
	SUBI R30,-1
	SBCI R31,-1
	SBCI R22,-1
	RET

__SUBF12:
	PUSH R21
	RCALL __UNPACK
	CPI  R25,0x80
	BREQ __ADDF129
	LDI  R21,0x80
	EOR  R1,R21

	RJMP __ADDF120

__ADDF12:
	PUSH R21
	RCALL __UNPACK
	CPI  R25,0x80
	BREQ __ADDF129

__ADDF120:
	CPI  R23,0x80
	BREQ __ADDF128
__ADDF121:
	MOV  R21,R23
	SUB  R21,R25
	BRVS __ADDF1211
	BRPL __ADDF122
	RCALL __SWAPACC
	RJMP __ADDF121
__ADDF122:
	CPI  R21,24
	BRLO __ADDF123
	CLR  R26
	CLR  R27
	CLR  R24
__ADDF123:
	CPI  R21,8
	BRLO __ADDF124
	MOV  R26,R27
	MOV  R27,R24
	CLR  R24
	SUBI R21,8
	RJMP __ADDF123
__ADDF124:
	TST  R21
	BREQ __ADDF126
__ADDF125:
	LSR  R24
	ROR  R27
	ROR  R26
	DEC  R21
	BRNE __ADDF125
__ADDF126:
	MOV  R21,R0
	EOR  R21,R1
	BRMI __ADDF127
	RCALL __UADD12
	BRCC __ADDF129
	ROR  R22
	ROR  R31
	ROR  R30
	INC  R23
	BRVC __ADDF129
	RJMP __MAXRES
__ADDF128:
	RCALL __SWAPACC
__ADDF129:
	RCALL __REPACK
	POP  R21
	RET
__ADDF1211:
	BRCC __ADDF128
	RJMP __ADDF129
__ADDF127:
	SUB  R30,R26
	SBC  R31,R27
	SBC  R22,R24
	BREQ __ZERORES
	BRCC __ADDF1210
	COM  R0
	RCALL __NEGMAN1
__ADDF1210:
	TST  R22
	BRMI __ADDF129
	LSL  R30
	ROL  R31
	ROL  R22
	DEC  R23
	BRVC __ADDF1210

__ZERORES:
	CLR  R30
	CLR  R31
	CLR  R22
	CLR  R23
	POP  R21
	RET

__MINRES:
	SER  R30
	SER  R31
	LDI  R22,0x7F
	SER  R23
	POP  R21
	RET

__MAXRES:
	SER  R30
	SER  R31
	LDI  R22,0x7F
	LDI  R23,0x7F
	POP  R21
	RET

__MULF12:
	PUSH R21
	RCALL __UNPACK
	CPI  R23,0x80
	BREQ __ZERORES
	CPI  R25,0x80
	BREQ __ZERORES
	EOR  R0,R1
	SEC
	ADC  R23,R25
	BRVC __MULF124
	BRLT __ZERORES
__MULF125:
	TST  R0
	BRMI __MINRES
	RJMP __MAXRES
__MULF124:
	PUSH R0
	PUSH R17
	PUSH R18
	PUSH R19
	PUSH R20
	CLR  R17
	CLR  R18
	CLR  R25
	MUL  R22,R24
	MOVW R20,R0
	MUL  R24,R31
	MOV  R19,R0
	ADD  R20,R1
	ADC  R21,R25
	MUL  R22,R27
	ADD  R19,R0
	ADC  R20,R1
	ADC  R21,R25
	MUL  R24,R30
	RCALL __MULF126
	MUL  R27,R31
	RCALL __MULF126
	MUL  R22,R26
	RCALL __MULF126
	MUL  R27,R30
	RCALL __MULF127
	MUL  R26,R31
	RCALL __MULF127
	MUL  R26,R30
	ADD  R17,R1
	ADC  R18,R25
	ADC  R19,R25
	ADC  R20,R25
	ADC  R21,R25
	MOV  R30,R19
	MOV  R31,R20
	MOV  R22,R21
	MOV  R21,R18
	POP  R20
	POP  R19
	POP  R18
	POP  R17
	POP  R0
	TST  R22
	BRMI __MULF122
	LSL  R21
	ROL  R30
	ROL  R31
	ROL  R22
	RJMP __MULF123
__MULF122:
	INC  R23
	BRVS __MULF125
__MULF123:
	RCALL __ROUND_REPACK
	POP  R21
	RET

__MULF127:
	ADD  R17,R0
	ADC  R18,R1
	ADC  R19,R25
	RJMP __MULF128
__MULF126:
	ADD  R18,R0
	ADC  R19,R1
__MULF128:
	ADC  R20,R25
	ADC  R21,R25
	RET

__DIVF21:
	PUSH R21
	RCALL __UNPACK
	CPI  R23,0x80
	BRNE __DIVF210
	TST  R1
__DIVF211:
	BRPL __DIVF219
	RJMP __MINRES
__DIVF219:
	RJMP __MAXRES
__DIVF210:
	CPI  R25,0x80
	BRNE __DIVF218
__DIVF217:
	RJMP __ZERORES
__DIVF218:
	EOR  R0,R1
	SEC
	SBC  R25,R23
	BRVC __DIVF216
	BRLT __DIVF217
	TST  R0
	RJMP __DIVF211
__DIVF216:
	MOV  R23,R25
	PUSH R17
	PUSH R18
	PUSH R19
	PUSH R20
	CLR  R1
	CLR  R17
	CLR  R18
	CLR  R19
	CLR  R20
	CLR  R21
	LDI  R25,32
__DIVF212:
	CP   R26,R30
	CPC  R27,R31
	CPC  R24,R22
	CPC  R20,R17
	BRLO __DIVF213
	SUB  R26,R30
	SBC  R27,R31
	SBC  R24,R22
	SBC  R20,R17
	SEC
	RJMP __DIVF214
__DIVF213:
	CLC
__DIVF214:
	ROL  R21
	ROL  R18
	ROL  R19
	ROL  R1
	ROL  R26
	ROL  R27
	ROL  R24
	ROL  R20
	DEC  R25
	BRNE __DIVF212
	MOVW R30,R18
	MOV  R22,R1
	POP  R20
	POP  R19
	POP  R18
	POP  R17
	TST  R22
	BRMI __DIVF215
	LSL  R21
	ROL  R30
	ROL  R31
	ROL  R22
	DEC  R23
	BRVS __DIVF217
__DIVF215:
	RCALL __ROUND_REPACK
	POP  R21
	RET

__CMPF12:
	TST  R25
	BRMI __CMPF120
	TST  R23
	BRMI __CMPF121
	CP   R25,R23
	BRLO __CMPF122
	BRNE __CMPF121
	CP   R26,R30
	CPC  R27,R31
	CPC  R24,R22
	BRLO __CMPF122
	BREQ __CMPF123
__CMPF121:
	CLZ
	CLC
	RET
__CMPF122:
	CLZ
	SEC
	RET
__CMPF123:
	SEZ
	CLC
	RET
__CMPF120:
	TST  R23
	BRPL __CMPF122
	CP   R25,R23
	BRLO __CMPF121
	BRNE __CMPF122
	CP   R30,R26
	CPC  R31,R27
	CPC  R22,R24
	BRLO __CMPF122
	BREQ __CMPF123
	RJMP __CMPF121

__ADDW2R15:
	CLR  R0
	ADD  R26,R15
	ADC  R27,R0
	RET

__ANEGD1:
	COM  R31
	COM  R22
	COM  R23
	NEG  R30
	SBCI R31,-1
	SBCI R22,-1
	SBCI R23,-1
	RET

__CBD1:
	MOV  R31,R30
	ADD  R31,R31
	SBC  R31,R31
	MOV  R22,R31
	MOV  R23,R31
	RET

__CWD1:
	MOV  R22,R31
	ADD  R22,R22
	SBC  R22,R22
	MOV  R23,R22
	RET

__DIVB21U:
	CLR  R0
	LDI  R25,8
__DIVB21U1:
	LSL  R26
	ROL  R0
	SUB  R0,R30
	BRCC __DIVB21U2
	ADD  R0,R30
	RJMP __DIVB21U3
__DIVB21U2:
	SBR  R26,1
__DIVB21U3:
	DEC  R25
	BRNE __DIVB21U1
	MOV  R30,R26
	MOV  R26,R0
	RET

__DIVB21:
	RCALL __CHKSIGNB
	RCALL __DIVB21U
	BRTC __DIVB211
	NEG  R30
__DIVB211:
	RET

__DIVD21U:
	PUSH R19
	PUSH R20
	PUSH R21
	CLR  R0
	CLR  R1
	CLR  R20
	CLR  R21
	LDI  R19,32
__DIVD21U1:
	LSL  R26
	ROL  R27
	ROL  R24
	ROL  R25
	ROL  R0
	ROL  R1
	ROL  R20
	ROL  R21
	SUB  R0,R30
	SBC  R1,R31
	SBC  R20,R22
	SBC  R21,R23
	BRCC __DIVD21U2
	ADD  R0,R30
	ADC  R1,R31
	ADC  R20,R22
	ADC  R21,R23
	RJMP __DIVD21U3
__DIVD21U2:
	SBR  R26,1
__DIVD21U3:
	DEC  R19
	BRNE __DIVD21U1
	MOVW R30,R26
	MOVW R22,R24
	MOVW R26,R0
	MOVW R24,R20
	POP  R21
	POP  R20
	POP  R19
	RET

__MODB21:
	CLT
	SBRS R26,7
	RJMP __MODB211
	NEG  R26
	SET
__MODB211:
	SBRC R30,7
	NEG  R30
	RCALL __DIVB21U
	MOV  R30,R26
	BRTC __MODB212
	NEG  R30
__MODB212:
	RET

__MODD21U:
	RCALL __DIVD21U
	MOVW R30,R26
	MOVW R22,R24
	RET

__CHKSIGNB:
	CLT
	SBRS R30,7
	RJMP __CHKSB1
	NEG  R30
	SET
__CHKSB1:
	SBRS R26,7
	RJMP __CHKSB2
	NEG  R26
	BLD  R0,0
	INC  R0
	BST  R0,0
__CHKSB2:
	RET

__GETW1P:
	LD   R30,X+
	LD   R31,X
	SBIW R26,1
	RET

__GETD1P:
	LD   R30,X+
	LD   R31,X+
	LD   R22,X+
	LD   R23,X
	SBIW R26,3
	RET

__PUTDP1:
	ST   X+,R30
	ST   X+,R31
	ST   X+,R22
	ST   X,R23
	RET

__GETD1S0:
	LD   R30,Y
	LDD  R31,Y+1
	LDD  R22,Y+2
	LDD  R23,Y+3
	RET

__GETD2S0:
	LD   R26,Y
	LDD  R27,Y+1
	LDD  R24,Y+2
	LDD  R25,Y+3
	RET

__PUTD1S0:
	ST   Y,R30
	STD  Y+1,R31
	STD  Y+2,R22
	STD  Y+3,R23
	RET

__PUTPARD1:
	ST   -Y,R23
	ST   -Y,R22
	ST   -Y,R31
	ST   -Y,R30
	RET

__PUTPARD2:
	ST   -Y,R25
	ST   -Y,R24
	ST   -Y,R27
	ST   -Y,R26
	RET

__SWAPD12:
	MOV  R1,R24
	MOV  R24,R22
	MOV  R22,R1
	MOV  R1,R25
	MOV  R25,R23
	MOV  R23,R1

__SWAPW12:
	MOV  R1,R27
	MOV  R27,R31
	MOV  R31,R1

__SWAPB12:
	MOV  R1,R26
	MOV  R26,R30
	MOV  R30,R1
	RET

__EEPROMRDD:
	ADIW R26,2
	RCALL __EEPROMRDW
	MOVW R22,R30
	SBIW R26,2

__EEPROMRDW:
	ADIW R26,1
	RCALL __EEPROMRDB
	MOV  R31,R30
	SBIW R26,1

__EEPROMRDB:
	SBIC EECR,EEWE
	RJMP __EEPROMRDB
	PUSH R31
	IN   R31,SREG
	CLI
	OUT  EEARL,R26
	OUT  EEARH,R27
	SBI  EECR,EERE
	IN   R30,EEDR
	OUT  SREG,R31
	POP  R31
	RET

__EEPROMWRD:
	RCALL __EEPROMWRW
	ADIW R26,2
	MOVW R0,R30
	MOVW R30,R22
	RCALL __EEPROMWRW
	MOVW R30,R0
	SBIW R26,2
	RET

__EEPROMWRW:
	RCALL __EEPROMWRB
	ADIW R26,1
	PUSH R30
	MOV  R30,R31
	RCALL __EEPROMWRB
	POP  R30
	SBIW R26,1
	RET

__EEPROMWRB:
	SBIS EECR,EEWE
	RJMP __EEPROMWRB1
	WDR
	RJMP __EEPROMWRB
__EEPROMWRB1:
	IN   R25,SREG
	CLI
	OUT  EEARL,R26
	OUT  EEARH,R27
	SBI  EECR,EERE
	IN   R24,EEDR
	CP   R30,R24
	BREQ __EEPROMWRB0
	OUT  EEDR,R30
	SBI  EECR,EEMWE
	SBI  EECR,EEWE
__EEPROMWRB0:
	OUT  SREG,R25
	RET

__CPD10:
	SBIW R30,0
	SBCI R22,0
	SBCI R23,0
	RET

__SAVELOCR6:
	ST   -Y,R21
__SAVELOCR5:
	ST   -Y,R20
__SAVELOCR4:
	ST   -Y,R19
__SAVELOCR3:
	ST   -Y,R18
__SAVELOCR2:
	ST   -Y,R17
	ST   -Y,R16
	RET

__LOADLOCR6:
	LDD  R21,Y+5
__LOADLOCR5:
	LDD  R20,Y+4
__LOADLOCR4:
	LDD  R19,Y+3
__LOADLOCR3:
	LDD  R18,Y+2
__LOADLOCR2:
	LDD  R17,Y+1
	LD   R16,Y
	RET

__LOADLOCR2P:
	LD   R16,Y+
	LD   R17,Y+
	RET

;END OF CODE MARKER
__END_OF_CODE:
